(lp1
(dp2
I1
F80
sI2
F54
sI3
F66
sI4
F50
sI5
F63
sI6
F32
sI7
F36
sI8
F36
sI9
F66
sI10
F44
sI11
F42
sI12
F39
sI13
F41
sI14
F37
sI15
F47
sI16
F39
sa(dp3
I1
F29
sI2
F18
sI3
F28
sI4
F19
sI5
F22
sI6
F6
sI7
F18
sI8
F11
sI9
F25
sI10
F17
sI11
F24
sI12
F22
sI13
F18
sI14
F16
sI15
F18
sI16
F20
sa(dp4
I1
F32
sI2
F25
sI3
F26
sI4
F23
sI5
F32
sI6
F15
sI7
F12
sI8
F20
sI9
F29
sI10
F19
sI11
F26
sI12
F17
sI13
F12
sI14
F20
sI15
F28
sI16
F14
sa(dp5
I1
F26
sI2
F13
sI3
F20
sI4
F33
sI5
F24
sI6
F20
sI7
F13
sI8
F20
sI9
F17
sI10
F14
sI11
F17
sI12
F18
sI13
F24
sI14
F30
sI15
F17
sI16
F35
sa(dp6
I1
F96
sI2
F56
sI3
F82
sI4
F92
sI5
F62
sI6
F45
sI7
F35
sI8
F47
sI9
F91
sI10
F36
sI11
F63
sI12
F56
sI13
F76
sI14
F52
sI15
F67
sI16
F87
sa(dp7
I1
F76
sI2
F49
sI3
F37
sI4
F51
sI5
F51
sI6
F35
sI7
F26
sI8
F32
sI9
F53
sI10
F28
sI11
F42
sI12
F27
sI13
F32
sI14
F32
sI15
F46
sI16
F46
sa(dp8
I1
F111
sI2
F70
sI3
F82
sI4
F61
sI5
F71
sI6
F42
sI7
F29
sI8
F68
sI9
F97
sI10
F38
sI11
F48
sI12
F44
sI13
F45
sI14
F60
sI15
F68
sI16
F68
sa(dp9
I1
F172
sI2
F129
sI3
F104
sI4
F119
sI5
F136
sI6
F129
sI7
F91
sI8
F119
sI9
F131
sI10
F100
sI11
F122
sI12
F102
sI13
F85
sI14
F117
sI15
F138
sI16
F123
sa(dp10
I1
F16
sI2
F14
sI3
F17
sI4
F23
sI5
F22
sI6
F29
sI7
F11
sI8
F27
sI9
F18
sI10
F19
sI11
F17
sI12
F14
sI13
F14
sI14
F27
sI15
F23
sI16
F50
sa(dp11
I1
F29
sI2
F17
sI3
F20
sI4
F23
sI5
F18
sI6
F14
sI7
F9
sI8
F30
sI9
F17
sI10
F15
sI11
F11
sI12
F24
sI13
F25
sI14
F25
sI15
F27
sI16
F58
sa(dp12
I1
F97
sI2
F72
sI3
F55
sI4
F61
sI5
F71
sI6
F63
sI7
F56
sI8
F57
sI9
F62
sI10
F61
sI11
F71
sI12
F71
sI13
F55
sI14
F51
sI15
F83
sI16
F63
sa(dp13
I1
F83
sI2
F74
sI3
F82
sI4
F73
sI5
F103
sI6
F66
sI7
F45
sI8
F55
sI9
F77
sI10
F54
sI11
F62
sI12
F61
sI13
F49
sI14
F75
sI15
F65
sI16
F75
sa(dp14
I1
F34
sI2
F25
sI3
F29
sI4
F19
sI5
F28
sI6
F18
sI7
F11
sI8
F20
sI9
F25
sI10
F13
sI11
F23
sI12
F25
sI13
F19
sI14
F21
sI15
F24
sI16
F33
sa(dp15
I1
F36
sI2
F16
sI3
F17
sI4
F21
sI5
F15
sI6
F16
sI7
F25
sI8
F13
sI9
F26
sI10
F31
sI11
F25
sI12
F16
sI13
F12
sI14
F6
sI15
F32
sI16
F28
sa(dp16
I1
F55
sI2
F24
sI3
F23
sI4
F40
sI5
F21
sI6
F15
sI7
F16
sI8
F32
sI9
F29
sI10
F24
sI11
F22
sI12
F30
sI13
F36
sI14
F21
sI15
F45
sI16
F50
sa(dp17
I1
F28
sI2
F15
sI3
F18
sI4
F21
sI5
F22
sI6
F13
sI7
F9
sI8
F22
sI9
F15
sI10
F20
sI11
F12
sI12
F20
sI13
F17
sI14
F18
sI15
F28
sI16
F30
sa(dp18
I1
F36
sI2
F32
sI3
F52
sI4
F28
sI5
F41
sI6
F25
sI7
F31
sI8
F26
sI9
F49
sI10
F35
sI11
F32
sI12
F21
sI13
F22
sI14
F31
sI15
F22
sI16
F20
sa(dp19
I1
F29
sI2
F24
sI3
F16
sI4
F35
sI5
F25
sI6
F21
sI7
F19
sI8
F29
sI9
F19
sI10
F16
sI11
F10
sI12
F21
sI13
F31
sI14
F33
sI15
F21
sI16
F39
sa(dp20
I1
F97
sI2
F64
sI3
F58
sI4
F62
sI5
F76
sI6
F43
sI7
F39
sI8
F40
sI9
F64
sI10
F36
sI11
F33
sI12
F37
sI13
F43
sI14
F55
sI15
F41
sI16
F64
sa(dp21
I1
F179
sI2
F136
sI3
F118
sI4
F136
sI5
F152
sI6
F125
sI7
F67
sI8
F136
sI9
F136
sI10
F103
sI11
F113
sI12
F128
sI13
F102
sI14
F116
sI15
F182
sI16
F177
sa(dp22
I1
F130
sI2
F87
sI3
F78
sI4
F100
sI5
F86
sI6
F61
sI7
F65
sI8
F58
sI9
F102
sI10
F69
sI11
F95
sI12
F72
sI13
F76
sI14
F53
sI15
F101
sI16
F106
sa(dp23
I1
F125
sI2
F96
sI3
F105
sI4
F113
sI5
F121
sI6
F69
sI7
F67
sI8
F87
sI9
F121
sI10
F86
sI11
F98
sI12
F107
sI13
F71
sI14
F93
sI15
F143
sI16
F144
sa(dp24
I1
F172
sI2
F118
sI3
F83
sI4
F153
sI5
F119
sI6
F92
sI7
F91
sI8
F142
sI9
F110
sI10
F98
sI11
F99
sI12
F112
sI13
F125
sI14
F136
sI15
F146
sI16
F192
sa(dp25
I1
F16
sI2
F21
sI3
F12
sI4
F27
sI5
F24
sI6
F30
sI7
F24
sI8
F37
sI9
F9
sI10
F28
sI11
F11
sI12
F24
sI13
F27
sI14
F36
sI15
F25
sI16
F67
sa(dp26
I1
F98
sI2
F75
sI3
F57
sI4
F67
sI5
F96
sI6
F80
sI7
F50
sI8
F71
sI9
F48
sI10
F66
sI11
F38
sI12
F43
sI13
F54
sI14
F76
sI15
F51
sI16
F88
sa(dp27
I1
F32
sI2
F28
sI3
F28
sI4
F33
sI5
F30
sI6
F10
sI7
F12
sI8
F15
sI9
F31
sI10
F16
sI11
F13
sI12
F22
sI13
F28
sI14
F13
sI15
F29
sI16
F30
sa(dp28
I1
F145
sI2
F54
sI3
F137
sI4
F57
sI5
F80
sI6
F36
sI7
F45
sI8
F52
sI9
F121
sI10
F76
sI11
F93
sI12
F51
sI13
F47
sI14
F47
sI15
F66
sI16
F54
sa(dp29
I1
F257
sI2
F191
sI3
F152
sI4
F181
sI5
F219
sI6
F172
sI7
F112
sI8
F164
sI9
F183
sI10
F144
sI11
F151
sI12
F162
sI13
F122
sI14
F160
sI15
F225
sI16
F199
sa(dp30
I1
F18
sI2
F22
sI3
F22
sI4
F32
sI5
F35
sI6
F31
sI7
F21
sI8
F44
sI9
F14
sI10
F31
sI11
F17
sI12
F40
sI13
F26
sI14
F47
sI15
F43
sI16
F60
sa(dp31
I1
F89
sI2
F42
sI3
F45
sI4
F53
sI5
F44
sI6
F34
sI7
F38
sI8
F37
sI9
F52
sI10
F42
sI11
F43
sI12
F44
sI13
F44
sI14
F35
sI15
F55
sI16
F57
sa(dp32
I1
F60
sI2
F32
sI3
F27
sI4
F40
sI5
F30
sI6
F24
sI7
F17
sI8
F34
sI9
F30
sI10
F24
sI11
F27
sI12
F22
sI13
F38
sI14
F25
sI15
F33
sI16
F37
sa(dp33
I1
F125
sI2
F86
sI3
F75
sI4
F101
sI5
F98
sI6
F63
sI7
F50
sI8
F71
sI9
F100
sI10
F55
sI11
F49
sI12
F70
sI13
F64
sI14
F78
sI15
F100
sI16
F80
sa(dp34
I1
F137
sI2
F113
sI3
F84
sI4
F75
sI5
F112
sI6
F100
sI7
F53
sI8
F93
sI9
F107
sI10
F49
sI11
F67
sI12
F104
sI13
F53
sI14
F96
sI15
F123
sI16
F111
sa(dp35
I1
F150
sI2
F98
sI3
F100
sI4
F107
sI5
F116
sI6
F102
sI7
F60
sI8
F88
sI9
F105
sI10
F72
sI11
F82
sI12
F92
sI13
F84
sI14
F94
sI15
F109
sI16
F145
sa(dp36
I1
F41
sI2
F26
sI3
F14
sI4
F17
sI5
F27
sI6
F12
sI7
F11
sI8
F17
sI9
F16
sI10
F16
sI11
F16
sI12
F21
sI13
F13
sI14
F13
sI15
F29
sI16
F14
sa(dp37
I1
F143
sI2
F148
sI3
F138
sI4
F143
sI5
F176
sI6
F68
sI7
F98
sI8
F85
sI9
F159
sI10
F106
sI11
F121
sI12
F88
sI13
F93
sI14
F105
sI15
F117
sI16
F102
sa(dp38
I1
F107
sI2
F85
sI3
F78
sI4
F46
sI5
F70
sI6
F68
sI7
F49
sI8
F79
sI9
F91
sI10
F44
sI11
F62
sI12
F82
sI13
F48
sI14
F69
sI15
F90
sI16
F99
sa(dp39
I1
F77
sI2
F81
sI3
F83
sI4
F80
sI5
F97
sI6
F56
sI7
F61
sI8
F62
sI9
F101
sI10
F68
sI11
F92
sI12
F69
sI13
F46
sI14
F71
sI15
F94
sI16
F88
sa(dp40
I1
F26
sI2
F21
sI3
F11
sI4
F25
sI5
F29
sI6
F29
sI7
F8
sI8
F27
sI9
F8
sI10
F11
sI11
F8
sI12
F14
sI13
F20
sI14
F32
sI15
F14
sI16
F46
sa(dp41
I1
F320
sI2
F253
sI3
F301
sI4
F242
sI5
F265
sI6
F146
sI7
F148
sI8
F229
sI9
F299
sI10
F221
sI11
F228
sI12
F201
sI13
F231
sI14
F168
sI15
F273
sI16
F246
sa(dp42
I1
F190
sI2
F120
sI3
F134
sI4
F126
sI5
F123
sI6
F82
sI7
F93
sI8
F107
sI9
F154
sI10
F100
sI11
F112
sI12
F111
sI13
F102
sI14
F103
sI15
F139
sI16
F174
sa(dp43
I1
F115
sI2
F72
sI3
F71
sI4
F71
sI5
F70
sI6
F60
sI7
F35
sI8
F69
sI9
F77
sI10
F58
sI11
F69
sI12
F54
sI13
F66
sI14
F44
sI15
F84
sI16
F96
sa(dp44
I1
F42
sI2
F29
sI3
F52
sI4
F33
sI5
F47
sI6
F26
sI7
F23
sI8
F26
sI9
F33
sI10
F41
sI11
F30
sI12
F33
sI13
F34
sI14
F26
sI15
F32
sI16
F26
sa(dp45
I1
F23
sI2
F30
sI3
F17
sI4
F14
sI5
F29
sI6
F31
sI7
F30
sI8
F44
sI9
F23
sI10
F31
sI11
F24
sI12
F29
sI13
F8
sI14
F42
sI15
F37
sI16
F26
sa(dp46
I1
F172
sI2
F105
sI3
F71
sI4
F147
sI5
F149
sI6
F106
sI7
F47
sI8
F142
sI9
F80
sI10
F79
sI11
F43
sI12
F57
sI13
F93
sI14
F154
sI15
F99
sI16
F169
sa(dp47
I1
F51
sI2
F39
sI3
F42
sI4
F23
sI5
F38
sI6
F21
sI7
F18
sI8
F30
sI9
F42
sI10
F30
sI11
F32
sI12
F25
sI13
F24
sI14
F17
sI15
F37
sI16
F22
sa(dp48
I1
F95
sI2
F67
sI3
F77
sI4
F72
sI5
F65
sI6
F41
sI7
F46
sI8
F47
sI9
F89
sI10
F50
sI11
F59
sI12
F57
sI13
F62
sI14
F41
sI15
F73
sI16
F64
sa(dp49
I1
F33
sI2
F19
sI3
F11
sI4
F37
sI5
F20
sI6
F15
sI7
F10
sI8
F16
sI9
F12
sI10
F10
sI11
F12
sI12
F10
sI13
F35
sI14
F17
sI15
F11
sI16
F52
sa(dp50
I1
F203
sI2
F108
sI3
F130
sI4
F146
sI5
F144
sI6
F99
sI7
F66
sI8
F125
sI9
F132
sI10
F96
sI11
F127
sI12
F127
sI13
F108
sI14
F131
sI15
F159
sI16
F146
sa(dp51
I1
F54
sI2
F60
sI3
F60
sI4
F75
sI5
F84
sI6
F50
sI7
F50
sI8
F71
sI9
F54
sI10
F74
sI11
F48
sI12
F54
sI13
F56
sI14
F71
sI15
F73
sI16
F89
sa(dp52
I1
F12
sI2
F22
sI3
F15
sI4
F12
sI5
F21
sI6
F19
sI7
F40
sI8
F30
sI9
F16
sI10
F35
sI11
F17
sI12
F24
sI13
F12
sI14
F34
sI15
F20
sI16
F53
sa(dp53
I1
F39
sI2
F23
sI3
F12
sI4
F24
sI5
F22
sI6
F8
sI7
F15
sI8
F17
sI9
F22
sI10
F15
sI11
F16
sI12
F18
sI13
F15
sI14
F16
sI15
F28
sI16
F27
sa(dp54
I1
F31
sI2
F9
sI3
F18
sI4
F31
sI5
F25
sI6
F6
sI7
F4
sI8
F24
sI9
F16
sI10
F11
sI11
F5
sI12
F12
sI13
F16
sI14
F33
sI15
F18
sI16
F49
sa(dp55
I1
F50
sI2
F35
sI3
F42
sI4
F50
sI5
F41
sI6
F28
sI7
F35
sI8
F37
sI9
F51
sI10
F38
sI11
F49
sI12
F35
sI13
F35
sI14
F40
sI15
F47
sI16
F58
sa(dp56
I1
F85
sI2
F37
sI3
F48
sI4
F45
sI5
F46
sI6
F27
sI7
F23
sI8
F19
sI9
F47
sI10
F32
sI11
F31
sI12
F34
sI13
F36
sI14
F19
sI15
F42
sI16
F38
sa(dp57
I1
F33
sI2
F16
sI3
F27
sI4
F31
sI5
F26
sI6
F13
sI7
F10
sI8
F16
sI9
F28
sI10
F15
sI11
F17
sI12
F20
sI13
F20
sI14
F21
sI15
F26
sI16
F22
sa(dp58
I1
F54
sI2
F35
sI3
F32
sI4
F22
sI5
F36
sI6
F27
sI7
F28
sI8
F18
sI9
F33
sI10
F25
sI11
F25
sI12
F18
sI13
F19
sI14
F22
sI15
F17
sI16
F18
sa(dp59
I1
F45
sI2
F97
sI3
F40
sI4
F44
sI5
F90
sI6
F53
sI7
F42
sI8
F78
sI9
F30
sI10
F44
sI11
F44
sI12
F66
sI13
F61
sI14
F69
sI15
F58
sI16
F64
sa(dp60
I1
F118
sI2
F69
sI3
F79
sI4
F124
sI5
F86
sI6
F63
sI7
F40
sI8
F68
sI9
F104
sI10
F59
sI11
F73
sI12
F65
sI13
F82
sI14
F66
sI15
F109
sI16
F134
sa(dp61
I1
F126
sI2
F66
sI3
F66
sI4
F70
sI5
F66
sI6
F55
sI7
F24
sI8
F69
sI9
F87
sI10
F40
sI11
F39
sI12
F40
sI13
F49
sI14
F53
sI15
F77
sI16
F93
sa(dp62
I1
F163
sI2
F94
sI3
F132
sI4
F126
sI5
F116
sI6
F91
sI7
F60
sI8
F122
sI9
F124
sI10
F83
sI11
F88
sI12
F118
sI13
F112
sI14
F121
sI15
F133
sI16
F146
sa(dp63
I1
F30
sI2
F14
sI3
F20
sI4
F15
sI5
F7
sI6
F14
sI7
F17
sI8
F27
sI9
F27
sI10
F22
sI11
F17
sI12
F19
sI13
F15
sI14
F15
sI15
F31
sI16
F24
sa(dp64
I1
F86
sI2
F56
sI3
F51
sI4
F58
sI5
F68
sI6
F59
sI7
F45
sI8
F60
sI9
F48
sI10
F50
sI11
F56
sI12
F69
sI13
F49
sI14
F67
sI15
F71
sI16
F74
sa(dp65
I1
F124
sI2
F84
sI3
F90
sI4
F111
sI5
F89
sI6
F45
sI7
F46
sI8
F73
sI9
F108
sI10
F55
sI11
F53
sI12
F56
sI13
F88
sI14
F69
sI15
F83
sI16
F88
sa(dp66
I1
F102
sI2
F72
sI3
F54
sI4
F79
sI5
F76
sI6
F36
sI7
F34
sI8
F64
sI9
F72
sI10
F45
sI11
F46
sI12
F51
sI13
F57
sI14
F57
sI15
F80
sI16
F83
sa(dp67
I1
F29
sI2
F36
sI3
F36
sI4
F51
sI5
F44
sI6
F40
sI7
F33
sI8
F50
sI9
F45
sI10
F50
sI11
F43
sI12
F41
sI13
F34
sI14
F41
sI15
F67
sI16
F55
sa(dp68
I1
F28
sI2
F15
sI3
F19
sI4
F29
sI5
F21
sI6
F17
sI7
F15
sI8
F28
sI9
F20
sI10
F25
sI11
F21
sI12
F12
sI13
F21
sI14
F24
sI15
F24
sI16
F43
sa(dp69
I1
F76
sI2
F61
sI3
F76
sI4
F62
sI5
F66
sI6
F57
sI7
F42
sI8
F54
sI9
F78
sI10
F49
sI11
F44
sI12
F48
sI13
F54
sI14
F52
sI15
F58
sI16
F31
sa(dp70
I1
F36
sI2
F28
sI3
F14
sI4
F39
sI5
F29
sI6
F14
sI7
F13
sI8
F24
sI9
F18
sI10
F13
sI11
F10
sI12
F28
sI13
F34
sI14
F25
sI15
F32
sI16
F52
sa(dp71
I1
F135
sI2
F81
sI3
F71
sI4
F101
sI5
F88
sI6
F68
sI7
F42
sI8
F86
sI9
F79
sI10
F53
sI11
F50
sI12
F48
sI13
F86
sI14
F82
sI15
F67
sI16
F83
sa(dp72
I1
F111
sI2
F73
sI3
F88
sI4
F84
sI5
F93
sI6
F53
sI7
F44
sI8
F50
sI9
F101
sI10
F61
sI11
F97
sI12
F68
sI13
F51
sI14
F53
sI15
F98
sI16
F90
sa(dp73
I1
F26
sI2
F12
sI3
F18
sI4
F33
sI5
F18
sI6
F14
sI7
F9
sI8
F16
sI9
F25
sI10
F10
sI11
F8
sI12
F13
sI13
F19
sI14
F21
sI15
F22
sI16
F59
sa(dp74
I1
F86
sI2
F79
sI3
F69
sI4
F94
sI5
F97
sI6
F101
sI7
F48
sI8
F107
sI9
F77
sI10
F66
sI11
F81
sI12
F81
sI13
F67
sI14
F107
sI15
F108
sI16
F150
sa(dp75
I1
F49
sI2
F34
sI3
F38
sI4
F46
sI5
F39
sI6
F38
sI7
F31
sI8
F41
sI9
F42
sI10
F37
sI11
F55
sI12
F41
sI13
F36
sI14
F40
sI15
F52
sI16
F38
sa(dp76
I1
F42
sI2
F40
sI3
F36
sI4
F34
sI5
F38
sI6
F27
sI7
F25
sI8
F27
sI9
F46
sI10
F26
sI11
F12
sI12
F28
sI13
F26
sI14
F24
sI15
F39
sI16
F24
sa(dp77
I1
F349
sI2
F163
sI3
F187
sI4
F272
sI5
F186
sI6
F132
sI7
F90
sI8
F159
sI9
F248
sI10
F82
sI11
F138
sI12
F196
sI13
F187
sI14
F190
sI15
F250
sI16
F337
sa(dp78
I1
F90
sI2
F81
sI3
F59
sI4
F75
sI5
F81
sI6
F67
sI7
F44
sI8
F84
sI9
F79
sI10
F52
sI11
F67
sI12
F65
sI13
F54
sI14
F76
sI15
F94
sI16
F76
sa(dp79
I1
F57
sI2
F27
sI3
F29
sI4
F51
sI5
F31
sI6
F16
sI7
F27
sI8
F24
sI9
F48
sI10
F19
sI11
F21
sI12
F26
sI13
F28
sI14
F36
sI15
F37
sI16
F35
sa(dp80
I1
F101
sI2
F52
sI3
F45
sI4
F83
sI5
F55
sI6
F39
sI7
F26
sI8
F36
sI9
F65
sI10
F21
sI11
F52
sI12
F42
sI13
F60
sI14
F44
sI15
F57
sI16
F79
sa(dp81
I1
F50
sI2
F56
sI3
F29
sI4
F42
sI5
F44
sI6
F46
sI7
F36
sI8
F43
sI9
F44
sI10
F25
sI11
F27
sI12
F37
sI13
F39
sI14
F42
sI15
F41
sI16
F38
sa(dp82
I1
F294
sI2
F159
sI3
F209
sI4
F257
sI5
F189
sI6
F130
sI7
F100
sI8
F145
sI9
F241
sI10
F109
sI11
F131
sI12
F172
sI13
F195
sI14
F166
sI15
F213
sI16
F246
sa(dp83
I1
F33
sI2
F19
sI3
F14
sI4
F43
sI5
F29
sI6
F25
sI7
F20
sI8
F62
sI9
F11
sI10
F23
sI11
F11
sI12
F31
sI13
F35
sI14
F69
sI15
F32
sI16
F108
sa(dp84
I1
F36
sI2
F21
sI3
F25
sI4
F63
sI5
F32
sI6
F29
sI7
F24
sI8
F33
sI9
F35
sI10
F31
sI11
F22
sI12
F34
sI13
F41
sI14
F37
sI15
F52
sI16
F53
sa(dp85
I1
F99
sI2
F90
sI3
F58
sI4
F59
sI5
F95
sI6
F84
sI7
F53
sI8
F84
sI9
F72
sI10
F54
sI11
F54
sI12
F70
sI13
F40
sI14
F88
sI15
F85
sI16
F79
sa(dp86
I1
F108
sI2
F57
sI3
F70
sI4
F75
sI5
F65
sI6
F34
sI7
F25
sI8
F42
sI9
F79
sI10
F29
sI11
F51
sI12
F54
sI13
F57
sI14
F46
sI15
F68
sI16
F80
sa(dp87
I1
F80
sI2
F71
sI3
F65
sI4
F46
sI5
F74
sI6
F53
sI7
F89
sI8
F37
sI9
F68
sI10
F80
sI11
F47
sI12
F49
sI13
F39
sI14
F49
sI15
F44
sI16
F31
sa(dp88
I1
F175
sI2
F63
sI3
F98
sI4
F58
sI5
F58
sI6
F52
sI7
F53
sI8
F48
sI9
F103
sI10
F58
sI11
F55
sI12
F48
sI13
F57
sI14
F38
sI15
F59
sI16
F59
sa(dp89
I1
F74
sI2
F64
sI3
F69
sI4
F102
sI5
F92
sI6
F63
sI7
F53
sI8
F91
sI9
F73
sI10
F88
sI11
F67
sI12
F86
sI13
F70
sI14
F84
sI15
F125
sI16
F123
sa(dp90
I1
F142
sI2
F98
sI3
F89
sI4
F100
sI5
F117
sI6
F64
sI7
F63
sI8
F76
sI9
F115
sI10
F68
sI11
F57
sI12
F74
sI13
F55
sI14
F90
sI15
F105
sI16
F99
sa(dp91
I1
F123
sI2
F62
sI3
F49
sI4
F82
sI5
F68
sI6
F52
sI7
F31
sI8
F51
sI9
F56
sI10
F38
sI11
F38
sI12
F37
sI13
F68
sI14
F50
sI15
F52
sI16
F48
sa(dp92
I1
F25
sI2
F16
sI3
F21
sI4
F20
sI5
F24
sI6
F18
sI7
F8
sI8
F25
sI9
F18
sI10
F13
sI11
F20
sI12
F27
sI13
F15
sI14
F28
sI15
F29
sI16
F37
sa(dp93
I1
F188
sI2
F138
sI3
F114
sI4
F153
sI5
F142
sI6
F112
sI7
F77
sI8
F115
sI9
F144
sI10
F90
sI11
F127
sI12
F109
sI13
F119
sI14
F106
sI15
F152
sI16
F170
sa(dp94
I1
F159
sI2
F114
sI3
F126
sI4
F106
sI5
F115
sI6
F76
sI7
F84
sI8
F99
sI9
F141
sI10
F95
sI11
F104
sI12
F101
sI13
F89
sI14
F89
sI15
F128
sI16
F155
sa(dp95
I1
F114
sI2
F33
sI3
F67
sI4
F61
sI5
F42
sI6
F28
sI7
F14
sI8
F36
sI9
F67
sI10
F30
sI11
F34
sI12
F42
sI13
F52
sI14
F29
sI15
F58
sI16
F65
sa(dp96
I1
F163
sI2
F85
sI3
F83
sI4
F124
sI5
F94
sI6
F54
sI7
F39
sI8
F85
sI9
F98
sI10
F42
sI11
F47
sI12
F64
sI13
F99
sI14
F91
sI15
F83
sI16
F138
sa(dp97
I1
F223
sI2
F107
sI3
F95
sI4
F153
sI5
F114
sI6
F62
sI7
F43
sI8
F73
sI9
F122
sI10
F50
sI11
F63
sI12
F64
sI13
F119
sI14
F73
sI15
F98
sI16
F130
sa(dp98
I1
F151
sI2
F114
sI3
F97
sI4
F100
sI5
F117
sI6
F80
sI7
F58
sI8
F73
sI9
F119
sI10
F68
sI11
F74
sI12
F63
sI13
F75
sI14
F66
sI15
F95
sI16
F77
sa(dp99
I1
F178
sI2
F103
sI3
F102
sI4
F96
sI5
F129
sI6
F61
sI7
F48
sI8
F50
sI9
F118
sI10
F56
sI11
F60
sI12
F44
sI13
F54
sI14
F68
sI15
F68
sI16
F65
sa(dp100
I1
F128
sI2
F58
sI3
F67
sI4
F103
sI5
F83
sI6
F69
sI7
F35
sI8
F59
sI9
F72
sI10
F51
sI11
F59
sI12
F51
sI13
F72
sI14
F68
sI15
F73
sI16
F113
sa(dp101
I1
F100
sI2
F106
sI3
F92
sI4
F84
sI5
F102
sI6
F81
sI7
F91
sI8
F77
sI9
F121
sI10
F71
sI11
F96
sI12
F97
sI13
F58
sI14
F93
sI15
F107
sI16
F101
sa(dp102
I1
F214
sI2
F123
sI3
F106
sI4
F160
sI5
F158
sI6
F106
sI7
F60
sI8
F122
sI9
F111
sI10
F80
sI11
F60
sI12
F76
sI13
F119
sI14
F137
sI15
F101
sI16
F157
sa(dp103
I1
F53
sI2
F49
sI3
F74
sI4
F37
sI5
F54
sI6
F33
sI7
F43
sI8
F33
sI9
F81
sI10
F49
sI11
F80
sI12
F54
sI13
F25
sI14
F32
sI15
F67
sI16
F49
sa(dp104
I1
F29
sI2
F22
sI3
F14
sI4
F23
sI5
F20
sI6
F26
sI7
F25
sI8
F22
sI9
F13
sI10
F23
sI11
F21
sI12
F28
sI13
F26
sI14
F22
sI15
F25
sI16
F52
sa(dp105
I1
F76
sI2
F54
sI3
F49
sI4
F49
sI5
F62
sI6
F49
sI7
F18
sI8
F49
sI9
F60
sI10
F30
sI11
F43
sI12
F30
sI13
F30
sI14
F45
sI15
F53
sI16
F48
sa(dp106
I1
F49
sI2
F23
sI3
F41
sI4
F47
sI5
F26
sI6
F10
sI7
F22
sI8
F19
sI9
F53
sI10
F15
sI11
F32
sI12
F34
sI13
F32
sI14
F29
sI15
F39
sI16
F47
sa(dp107
I1
F71
sI2
F61
sI3
F53
sI4
F61
sI5
F67
sI6
F53
sI7
F36
sI8
F70
sI9
F66
sI10
F40
sI11
F51
sI12
F70
sI13
F42
sI14
F72
sI15
F87
sI16
F81
sa(dp108
I1
F108
sI2
F57
sI3
F71
sI4
F65
sI5
F54
sI6
F38
sI7
F25
sI8
F42
sI9
F85
sI10
F26
sI11
F33
sI12
F39
sI13
F54
sI14
F38
sI15
F54
sI16
F51
sa(dp109
I1
F247
sI2
F155
sI3
F143
sI4
F157
sI5
F186
sI6
F151
sI7
F98
sI8
F143
sI9
F144
sI10
F122
sI11
F85
sI12
F98
sI13
F124
sI14
F150
sI15
F124
sI16
F135
sa(dp110
I1
F56
sI2
F35
sI3
F32
sI4
F47
sI5
F44
sI6
F24
sI7
F19
sI8
F33
sI9
F42
sI10
F21
sI11
F23
sI12
F33
sI13
F27
sI14
F40
sI15
F46
sI16
F34
sa(dp111
I1
F128
sI2
F78
sI3
F87
sI4
F111
sI5
F90
sI6
F56
sI7
F41
sI8
F79
sI9
F108
sI10
F50
sI11
F69
sI12
F109
sI13
F78
sI14
F82
sI15
F139
sI16
F160
sa(dp112
I1
F71
sI2
F18
sI3
F41
sI4
F48
sI5
F24
sI6
F14
sI7
F17
sI8
F15
sI9
F55
sI10
F21
sI11
F35
sI12
F22
sI13
F28
sI14
F17
sI15
F40
sI16
F46
sa(dp113
I1
F66
sI2
F41
sI3
F26
sI4
F53
sI5
F49
sI6
F29
sI7
F25
sI8
F21
sI9
F36
sI10
F29
sI11
F27
sI12
F15
sI13
F35
sI14
F25
sI15
F29
sI16
F39
sa(dp114
I1
F167
sI2
F98
sI3
F98
sI4
F106
sI5
F113
sI6
F47
sI7
F49
sI8
F59
sI9
F118
sI10
F57
sI11
F78
sI12
F48
sI13
F71
sI14
F66
sI15
F76
sI16
F88
sa(dp115
I1
F130
sI2
F114
sI3
F95
sI4
F107
sI5
F133
sI6
F100
sI7
F76
sI8
F88
sI9
F99
sI10
F96
sI11
F76
sI12
F93
sI13
F84
sI14
F87
sI15
F117
sI16
F124
sa(dp116
I1
F159
sI2
F69
sI3
F92
sI4
F70
sI5
F82
sI6
F36
sI7
F46
sI8
F48
sI9
F106
sI10
F62
sI11
F53
sI12
F32
sI13
F42
sI14
F45
sI15
F63
sI16
F32
sa(dp117
I1
F67
sI2
F46
sI3
F53
sI4
F67
sI5
F54
sI6
F35
sI7
F29
sI8
F44
sI9
F56
sI10
F31
sI11
F27
sI12
F46
sI13
F56
sI14
F50
sI15
F51
sI16
F72
sa(dp118
I1
F110
sI2
F112
sI3
F101
sI4
F100
sI5
F108
sI6
F76
sI7
F70
sI8
F99
sI9
F122
sI10
F87
sI11
F97
sI12
F80
sI13
F83
sI14
F78
sI15
F118
sI16
F95
sa(dp119
I1
F38
sI2
F29
sI3
F33
sI4
F37
sI5
F37
sI6
F18
sI7
F17
sI8
F25
sI9
F36
sI10
F22
sI11
F25
sI12
F26
sI13
F25
sI14
F28
sI15
F35
sI16
F25
sa(dp120
I1
F122
sI2
F113
sI3
F71
sI4
F127
sI5
F128
sI6
F81
sI7
F78
sI8
F93
sI9
F103
sI10
F87
sI11
F113
sI12
F75
sI13
F80
sI14
F99
sI15
F116
sI16
F136
sa(dp121
I1
F68
sI2
F63
sI3
F60
sI4
F48
sI5
F52
sI6
F45
sI7
F44
sI8
F58
sI9
F73
sI10
F44
sI11
F40
sI12
F32
sI13
F45
sI14
F47
sI15
F46
sI16
F45
sa(dp122
I1
F17
sI2
F22
sI3
F21
sI4
F48
sI5
F33
sI6
F17
sI7
F8
sI8
F20
sI9
F15
sI10
F14
sI11
F17
sI12
F23
sI13
F43
sI14
F25
sI15
F23
sI16
F42
sa(dp123
I1
F60
sI2
F44
sI3
F55
sI4
F53
sI5
F54
sI6
F41
sI7
F26
sI8
F33
sI9
F66
sI10
F32
sI11
F61
sI12
F42
sI13
F32
sI14
F37
sI15
F59
sI16
F44
sa(dp124
I1
F182
sI2
F67
sI3
F83
sI4
F142
sI5
F91
sI6
F46
sI7
F33
sI8
F54
sI9
F95
sI10
F39
sI11
F58
sI12
F60
sI13
F105
sI14
F72
sI15
F79
sI16
F133
sa(dp125
I1
F128
sI2
F87
sI3
F105
sI4
F101
sI5
F121
sI6
F86
sI7
F67
sI8
F63
sI9
F103
sI10
F93
sI11
F67
sI12
F47
sI13
F69
sI14
F71
sI15
F71
sI16
F57
sa(dp126
I1
F54
sI2
F44
sI3
F34
sI4
F56
sI5
F45
sI6
F28
sI7
F17
sI8
F41
sI9
F29
sI10
F22
sI11
F23
sI12
F45
sI13
F60
sI14
F37
sI15
F45
sI16
F94
sa(dp127
I1
F211
sI2
F106
sI3
F110
sI4
F135
sI5
F118
sI6
F86
sI7
F54
sI8
F84
sI9
F150
sI10
F53
sI11
F68
sI12
F98
sI13
F83
sI14
F97
sI15
F137
sI16
F156
sa(dp128
I1
F74
sI2
F57
sI3
F55
sI4
F54
sI5
F63
sI6
F45
sI7
F30
sI8
F65
sI9
F47
sI10
F46
sI11
F49
sI12
F47
sI13
F56
sI14
F55
sI15
F55
sI16
F92
sa(dp129
I1
F93
sI2
F102
sI3
F71
sI4
F127
sI5
F115
sI6
F111
sI7
F137
sI8
F99
sI9
F105
sI10
F123
sI11
F154
sI12
F122
sI13
F80
sI14
F126
sI15
F142
sI16
F145
sa(dp130
I1
F36
sI2
F38
sI3
F37
sI4
F28
sI5
F37
sI6
F25
sI7
F21
sI8
F23
sI9
F45
sI10
F28
sI11
F28
sI12
F37
sI13
F21
sI14
F15
sI15
F52
sI16
F26
sa(dp131
I1
F77
sI2
F64
sI3
F37
sI4
F41
sI5
F63
sI6
F47
sI7
F34
sI8
F66
sI9
F35
sI10
F43
sI11
F37
sI12
F52
sI13
F43
sI14
F56
sI15
F60
sI16
F82
sa(dp132
I1
F111
sI2
F59
sI3
F44
sI4
F55
sI5
F69
sI6
F47
sI7
F20
sI8
F69
sI9
F41
sI10
F37
sI11
F27
sI12
F40
sI13
F47
sI14
F62
sI15
F55
sI16
F89
sa(dp133
I1
F24
sI2
F22
sI3
F32
sI4
F44
sI5
F25
sI6
F8
sI7
F15
sI8
F20
sI9
F35
sI10
F16
sI11
F26
sI12
F32
sI13
F38
sI14
F22
sI15
F36
sI16
F40
sa(dp134
I1
F154
sI2
F105
sI3
F99
sI4
F120
sI5
F128
sI6
F85
sI7
F55
sI8
F99
sI9
F105
sI10
F70
sI11
F109
sI12
F127
sI13
F90
sI14
F107
sI15
F149
sI16
F126
sa(dp135
I1
F54
sI2
F31
sI3
F31
sI4
F44
sI5
F32
sI6
F26
sI7
F26
sI8
F24
sI9
F41
sI10
F19
sI11
F22
sI12
F49
sI13
F33
sI14
F32
sI15
F52
sI16
F49
sa(dp136
I1
F87
sI2
F57
sI3
F38
sI4
F53
sI5
F58
sI6
F36
sI7
F27
sI8
F32
sI9
F45
sI10
F30
sI11
F23
sI12
F22
sI13
F45
sI14
F30
sI15
F32
sI16
F33
sa(dp137
I1
F113
sI2
F124
sI3
F93
sI4
F85
sI5
F115
sI6
F55
sI7
F73
sI8
F70
sI9
F118
sI10
F58
sI11
F76
sI12
F70
sI13
F69
sI14
F76
sI15
F80
sI16
F105
sa(dp138
I1
F114
sI2
F54
sI3
F67
sI4
F72
sI5
F51
sI6
F37
sI7
F50
sI8
F42
sI9
F94
sI10
F44
sI11
F51
sI12
F57
sI13
F48
sI14
F45
sI15
F78
sI16
F48
sa(dp139
I1
F23
sI2
F17
sI3
F27
sI4
F42
sI5
F25
sI6
F7
sI7
F18
sI8
F5
sI9
F24
sI10
F25
sI11
F32
sI12
F21
sI13
F37
sI14
F6
sI15
F25
sI16
F13
sa(dp140
I1
F46
sI2
F21
sI3
F27
sI4
F25
sI5
F24
sI6
F10
sI7
F8
sI8
F11
sI9
F24
sI10
F10
sI11
F27
sI12
F22
sI13
F25
sI14
F12
sI15
F21
sI16
F22
sa(dp141
I1
F183
sI2
F108
sI3
F131
sI4
F139
sI5
F139
sI6
F109
sI7
F61
sI8
F88
sI9
F141
sI10
F69
sI11
F91
sI12
F88
sI13
F97
sI14
F111
sI15
F107
sI16
F131
sa(dp142
I1
F54
sI2
F41
sI3
F48
sI4
F35
sI5
F45
sI6
F27
sI7
F20
sI8
F30
sI9
F56
sI10
F25
sI11
F25
sI12
F37
sI13
F23
sI14
F29
sI15
F50
sI16
F38
sa(dp143
I1
F33
sI2
F19
sI3
F30
sI4
F10
sI5
F20
sI6
F18
sI7
F42
sI8
F11
sI9
F26
sI10
F39
sI11
F22
sI12
F22
sI13
F12
sI14
F15
sI15
F16
sI16
F9
sa(dp144
I1
F135
sI2
F53
sI3
F83
sI4
F89
sI5
F81
sI6
F59
sI7
F47
sI8
F67
sI9
F79
sI10
F75
sI11
F88
sI12
F68
sI13
F65
sI14
F67
sI15
F92
sI16
F84
sa(dp145
I1
F225
sI2
F108
sI3
F125
sI4
F99
sI5
F132
sI6
F69
sI7
F54
sI8
F93
sI9
F123
sI10
F82
sI11
F59
sI12
F57
sI13
F77
sI14
F89
sI15
F83
sI16
F76
sa(dp146
I1
F158
sI2
F93
sI3
F78
sI4
F92
sI5
F92
sI6
F54
sI7
F33
sI8
F72
sI9
F101
sI10
F37
sI11
F49
sI12
F52
sI13
F70
sI14
F67
sI15
F79
sI16
F99
sa(dp147
I1
F172
sI2
F101
sI3
F93
sI4
F91
sI5
F118
sI6
F81
sI7
F54
sI8
F94
sI9
F111
sI10
F54
sI11
F70
sI12
F70
sI13
F56
sI14
F111
sI15
F88
sI16
F122
sa(dp148
I1
F116
sI2
F57
sI3
F60
sI4
F70
sI5
F64
sI6
F44
sI7
F29
sI8
F52
sI9
F70
sI10
F35
sI11
F41
sI12
F43
sI13
F53
sI14
F53
sI15
F59
sI16
F76
sa(dp149
I1
F66
sI2
F24
sI3
F49
sI4
F27
sI5
F34
sI6
F13
sI7
F19
sI8
F21
sI9
F42
sI10
F28
sI11
F39
sI12
F28
sI13
F24
sI14
F22
sI15
F30
sI16
F37
sa(dp150
I1
F23
sI2
F15
sI3
F23
sI4
F16
sI5
F16
sI6
F11
sI7
F18
sI8
F11
sI9
F25
sI10
F19
sI11
F14
sI12
F18
sI13
F13
sI14
F11
sI15
F21
sI16
F22
sa(dp151
I1
F82
sI2
F33
sI3
F41
sI4
F60
sI5
F33
sI6
F15
sI7
F23
sI8
F26
sI9
F58
sI10
F23
sI11
F37
sI12
F29
sI13
F43
sI14
F26
sI15
F46
sI16
F64
sa(dp152
I1
F137
sI2
F78
sI3
F102
sI4
F111
sI5
F103
sI6
F55
sI7
F56
sI8
F63
sI9
F110
sI10
F68
sI11
F67
sI12
F64
sI13
F78
sI14
F76
sI15
F84
sI16
F110
sa(dp153
I1
F115
sI2
F61
sI3
F104
sI4
F99
sI5
F80
sI6
F55
sI7
F52
sI8
F71
sI9
F112
sI10
F57
sI11
F85
sI12
F86
sI13
F72
sI14
F85
sI15
F99
sI16
F123
sa(dp154
I1
F120
sI2
F69
sI3
F96
sI4
F80
sI5
F101
sI6
F54
sI7
F61
sI8
F66
sI9
F88
sI10
F87
sI11
F109
sI12
F89
sI13
F56
sI14
F72
sI15
F107
sI16
F95
sa(dp155
I1
F35
sI2
F16
sI3
F39
sI4
F14
sI5
F17
sI6
F9
sI7
F14
sI8
F16
sI9
F32
sI10
F20
sI11
F34
sI12
F23
sI13
F20
sI14
F11
sI15
F22
sI16
F25
sa(dp156
I1
F36
sI2
F27
sI3
F15
sI4
F27
sI5
F36
sI6
F20
sI7
F22
sI8
F19
sI9
F17
sI10
F27
sI11
F19
sI12
F21
sI13
F16
sI14
F23
sI15
F28
sI16
F29
sa(dp157
I1
F10
sI2
F18
sI3
F14
sI4
F16
sI5
F25
sI6
F32
sI7
F15
sI8
F31
sI9
F10
sI10
F25
sI11
F21
sI12
F18
sI13
F13
sI14
F28
sI15
F24
sI16
F50
sa(dp158
I1
F70
sI2
F58
sI3
F66
sI4
F64
sI5
F60
sI6
F30
sI7
F37
sI8
F36
sI9
F80
sI10
F39
sI11
F67
sI12
F45
sI13
F48
sI14
F36
sI15
F61
sI16
F66
sa(dp159
I1
F29
sI2
F54
sI3
F29
sI4
F37
sI5
F54
sI6
F32
sI7
F20
sI8
F35
sI9
F28
sI10
F22
sI11
F13
sI12
F24
sI13
F37
sI14
F33
sI15
F26
sI16
F27
sa(dp160
I1
F24
sI2
F28
sI3
F35
sI4
F25
sI5
F30
sI6
F23
sI7
F24
sI8
F26
sI9
F29
sI10
F32
sI11
F32
sI12
F31
sI13
F29
sI14
F20
sI15
F33
sI16
F23
sa(dp161
I1
F150
sI2
F111
sI3
F110
sI4
F102
sI5
F108
sI6
F90
sI7
F71
sI8
F85
sI9
F136
sI10
F61
sI11
F76
sI12
F102
sI13
F78
sI14
F92
sI15
F119
sI16
F146
sa(dp162
I1
F202
sI2
F85
sI3
F86
sI4
F131
sI5
F92
sI6
F53
sI7
F36
sI8
F70
sI9
F101
sI10
F42
sI11
F60
sI12
F54
sI13
F108
sI14
F71
sI15
F76
sI16
F122
sa(dp163
I1
F27
sI2
F14
sI3
F34
sI4
F16
sI5
F15
sI6
F10
sI7
F9
sI8
F17
sI9
F26
sI10
F9
sI11
F17
sI12
F27
sI13
F23
sI14
F18
sI15
F19
sI16
F24
sa(dp164
I1
F93
sI2
F54
sI3
F53
sI4
F80
sI5
F58
sI6
F33
sI7
F24
sI8
F44
sI9
F68
sI10
F35
sI11
F48
sI12
F41
sI13
F61
sI14
F37
sI15
F67
sI16
F94
sa(dp165
I1
F37
sI2
F46
sI3
F45
sI4
F24
sI5
F58
sI6
F61
sI7
F41
sI8
F50
sI9
F36
sI10
F51
sI11
F13
sI12
F32
sI13
F21
sI14
F52
sI15
F33
sI16
F27
sa(dp166
I1
F76
sI2
F62
sI3
F39
sI4
F72
sI5
F71
sI6
F46
sI7
F19
sI8
F77
sI9
F48
sI10
F33
sI11
F38
sI12
F47
sI13
F54
sI14
F72
sI15
F70
sI16
F90
sa(dp167
I1
F79
sI2
F63
sI3
F52
sI4
F46
sI5
F62
sI6
F50
sI7
F52
sI8
F73
sI9
F50
sI10
F47
sI11
F70
sI12
F95
sI13
F49
sI14
F77
sI15
F88
sI16
F76
sa(dp168
I1
F73
sI2
F69
sI3
F63
sI4
F42
sI5
F79
sI6
F62
sI7
F52
sI8
F54
sI9
F65
sI10
F58
sI11
F35
sI12
F56
sI13
F30
sI14
F58
sI15
F64
sI16
F54
sa(dp169
I1
F103
sI2
F78
sI3
F90
sI4
F74
sI5
F97
sI6
F59
sI7
F48
sI8
F34
sI9
F75
sI10
F62
sI11
F44
sI12
F35
sI13
F70
sI14
F39
sI15
F34
sI16
F39
sa(dp170
I1
F52
sI2
F34
sI3
F46
sI4
F42
sI5
F37
sI6
F23
sI7
F29
sI8
F30
sI9
F52
sI10
F35
sI11
F39
sI12
F32
sI13
F32
sI14
F27
sI15
F45
sI16
F25
sa(dp171
I1
F86
sI2
F57
sI3
F68
sI4
F79
sI5
F64
sI6
F45
sI7
F49
sI8
F70
sI9
F88
sI10
F53
sI11
F73
sI12
F93
sI13
F51
sI14
F73
sI15
F118
sI16
F127
sa(dp172
I1
F186
sI2
F98
sI3
F90
sI4
F121
sI5
F93
sI6
F63
sI7
F48
sI8
F79
sI9
F110
sI10
F49
sI11
F56
sI12
F82
sI13
F105
sI14
F73
sI15
F104
sI16
F123
sa(dp173
I1
F81
sI2
F55
sI3
F33
sI4
F43
sI5
F55
sI6
F32
sI7
F19
sI8
F40
sI9
F31
sI10
F27
sI11
F22
sI12
F38
sI13
F45
sI14
F32
sI15
F44
sI16
F57
sa(dp174
I1
F127
sI2
F82
sI3
F78
sI4
F117
sI5
F101
sI6
F65
sI7
F44
sI8
F63
sI9
F107
sI10
F45
sI11
F53
sI12
F74
sI13
F69
sI14
F81
sI15
F104
sI16
F90
sa(dp175
I1
F22
sI2
F22
sI3
F19
sI4
F31
sI5
F29
sI6
F12
sI7
F12
sI8
F21
sI9
F20
sI10
F13
sI11
F10
sI12
F11
sI13
F23
sI14
F27
sI15
F13
sI16
F59
sa(dp176
I1
F139
sI2
F90
sI3
F107
sI4
F88
sI5
F94
sI6
F96
sI7
F80
sI8
F76
sI9
F123
sI10
F66
sI11
F88
sI12
F90
sI13
F68
sI14
F94
sI15
F92
sI16
F101
sa(dp177
I1
F135
sI2
F71
sI3
F80
sI4
F96
sI5
F91
sI6
F63
sI7
F28
sI8
F61
sI9
F92
sI10
F36
sI11
F53
sI12
F50
sI13
F64
sI14
F73
sI15
F70
sI16
F107
sa(dp178
I1
F32
sI2
F45
sI3
F22
sI4
F29
sI5
F52
sI6
F38
sI7
F23
sI8
F43
sI9
F15
sI10
F32
sI11
F13
sI12
F24
sI13
F29
sI14
F41
sI15
F26
sI16
F45
sa(dp179
I1
F174
sI2
F96
sI3
F75
sI4
F113
sI5
F83
sI6
F58
sI7
F44
sI8
F111
sI9
F112
sI10
F51
sI11
F67
sI12
F81
sI13
F89
sI14
F91
sI15
F125
sI16
F128
sa(dp180
I1
F227
sI2
F84
sI3
F116
sI4
F132
sI5
F106
sI6
F57
sI7
F41
sI8
F63
sI9
F139
sI10
F42
sI11
F72
sI12
F67
sI13
F87
sI14
F84
sI15
F91
sI16
F128
sa(dp181
I1
F86
sI2
F63
sI3
F63
sI4
F66
sI5
F73
sI6
F41
sI7
F33
sI8
F52
sI9
F69
sI10
F47
sI11
F48
sI12
F49
sI13
F49
sI14
F48
sI15
F70
sI16
F68
sa(dp182
I1
F81
sI2
F51
sI3
F49
sI4
F76
sI5
F66
sI6
F33
sI7
F21
sI8
F40
sI9
F54
sI10
F26
sI11
F28
sI12
F40
sI13
F55
sI14
F50
sI15
F51
sI16
F69
sa(dp183
I1
F66
sI2
F31
sI3
F46
sI4
F77
sI5
F43
sI6
F18
sI7
F24
sI8
F30
sI9
F60
sI10
F25
sI11
F32
sI12
F37
sI13
F51
sI14
F41
sI15
F52
sI16
F62
sa(dp184
I1
F34
sI2
F19
sI3
F21
sI4
F15
sI5
F22
sI6
F14
sI7
F6
sI8
F16
sI9
F21
sI10
F12
sI11
F19
sI12
F6
sI13
F12
sI14
F13
sI15
F12
sI16
F13
sa(dp185
I1
F78
sI2
F30
sI3
F44
sI4
F34
sI5
F34
sI6
F24
sI7
F16
sI8
F34
sI9
F49
sI10
F24
sI11
F21
sI12
F14
sI13
F24
sI14
F30
sI15
F28
sI16
F34
sa(dp186
I1
F36
sI2
F29
sI3
F40
sI4
F27
sI5
F28
sI6
F19
sI7
F25
sI8
F27
sI9
F37
sI10
F29
sI11
F35
sI12
F25
sI13
F31
sI14
F22
sI15
F26
sI16
F23
sa(dp187
I1
F14
sI2
F33
sI3
F12
sI4
F48
sI5
F38
sI6
F20
sI7
F18
sI8
F35
sI9
F27
sI10
F26
sI11
F7
sI12
F15
sI13
F27
sI14
F32
sI15
F38
sI16
F36
sa(dp188
I1
F107
sI2
F58
sI3
F75
sI4
F57
sI5
F68
sI6
F55
sI7
F28
sI8
F64
sI9
F79
sI10
F52
sI11
F40
sI12
F48
sI13
F43
sI14
F50
sI15
F76
sI16
F61
sa(dp189
I1
F153
sI2
F85
sI3
F109
sI4
F60
sI5
F86
sI6
F46
sI7
F43
sI8
F56
sI9
F114
sI10
F59
sI11
F58
sI12
F56
sI13
F54
sI14
F41
sI15
F77
sI16
F64
sa(dp190
I1
F174
sI2
F106
sI3
F124
sI4
F128
sI5
F120
sI6
F91
sI7
F96
sI8
F77
sI9
F122
sI10
F93
sI11
F83
sI12
F92
sI13
F115
sI14
F94
sI15
F88
sI16
F128
sa(dp191
I1
F193
sI2
F137
sI3
F154
sI4
F117
sI5
F164
sI6
F101
sI7
F104
sI8
F87
sI9
F156
sI10
F124
sI11
F111
sI12
F94
sI13
F88
sI14
F94
sI15
F116
sI16
F98
sa(dp192
I1
F21
sI2
F15
sI3
F17
sI4
F17
sI5
F19
sI6
F18
sI7
F18
sI8
F22
sI9
F16
sI10
F21
sI11
F11
sI12
F28
sI13
F14
sI14
F23
sI15
F30
sI16
F48
sa(dp193
I1
F24
sI2
F22
sI3
F18
sI4
F35
sI5
F31
sI6
F15
sI7
F16
sI8
F18
sI9
F18
sI10
F19
sI11
F19
sI12
F21
sI13
F26
sI14
F24
sI15
F24
sI16
F46
sa(dp194
I1
F66
sI2
F41
sI3
F54
sI4
F36
sI5
F54
sI6
F29
sI7
F14
sI8
F28
sI9
F52
sI10
F22
sI11
F31
sI12
F41
sI13
F25
sI14
F33
sI15
F47
sI16
F60
sa(dp195
I1
F72
sI2
F73
sI3
F56
sI4
F81
sI5
F81
sI6
F44
sI7
F39
sI8
F72
sI9
F67
sI10
F41
sI11
F49
sI12
F69
sI13
F61
sI14
F78
sI15
F83
sI16
F113
sa(dp196
I1
F7
sI2
F6
sI3
F10
sI4
F11
sI5
F9
sI6
F3
sI7
F3
sI8
F7
sI9
F6
sI10
F5
sI11
F6
sI12
F9
sI13
F12
sI14
F8
sI15
F7
sI16
F19
sa(dp197
I1
F127
sI2
F56
sI3
F76
sI4
F110
sI5
F74
sI6
F49
sI7
F30
sI8
F54
sI9
F85
sI10
F43
sI11
F45
sI12
F54
sI13
F83
sI14
F59
sI15
F76
sI16
F99
sa(dp198
I1
F40
sI2
F23
sI3
F19
sI4
F32
sI5
F33
sI6
F22
sI7
F24
sI8
F50
sI9
F24
sI10
F29
sI11
F17
sI12
F37
sI13
F16
sI14
F55
sI15
F48
sI16
F79
sa(dp199
I1
F192
sI2
F125
sI3
F138
sI4
F139
sI5
F145
sI6
F103
sI7
F82
sI8
F104
sI9
F157
sI10
F115
sI11
F119
sI12
F104
sI13
F100
sI14
F91
sI15
F156
sI16
F162
sa(dp200
I1
F128
sI2
F59
sI3
F56
sI4
F67
sI5
F59
sI6
F35
sI7
F30
sI8
F63
sI9
F70
sI10
F36
sI11
F21
sI12
F23
sI13
F53
sI14
F57
sI15
F43
sI16
F60
sa(dp201
I1
F132
sI2
F34
sI3
F49
sI4
F65
sI5
F41
sI6
F14
sI7
F17
sI8
F22
sI9
F58
sI10
F25
sI11
F27
sI12
F18
sI13
F49
sI14
F21
sI15
F35
sI16
F62
sa(dp202
I1
F39
sI2
F26
sI3
F30
sI4
F34
sI5
F37
sI6
F27
sI7
F12
sI8
F27
sI9
F40
sI10
F19
sI11
F24
sI12
F27
sI13
F13
sI14
F31
sI15
F44
sI16
F35
sa(dp203
I1
F97
sI2
F44
sI3
F76
sI4
F67
sI5
F63
sI6
F35
sI7
F24
sI8
F36
sI9
F76
sI10
F43
sI11
F49
sI12
F41
sI13
F47
sI14
F36
sI15
F61
sI16
F57
sa(dp204
I1
F168
sI2
F125
sI3
F128
sI4
F148
sI5
F174
sI6
F99
sI7
F80
sI8
F114
sI9
F126
sI10
F123
sI11
F121
sI12
F94
sI13
F101
sI14
F120
sI15
F135
sI16
F120
sa(dp205
I1
F26
sI2
F21
sI3
F17
sI4
F9
sI5
F19
sI6
F12
sI7
F7
sI8
F22
sI9
F15
sI10
F6
sI11
F16
sI12
F20
sI13
F13
sI14
F21
sI15
F17
sI16
F20
sa(dp206
I1
F31
sI2
F17
sI3
F22
sI4
F11
sI5
F19
sI6
F9
sI7
F13
sI8
F12
sI9
F20
sI10
F15
sI11
F18
sI12
F11
sI13
F11
sI14
F12
sI15
F11
sI16
F20
sa(dp207
I1
F107
sI2
F63
sI3
F76
sI4
F64
sI5
F76
sI6
F29
sI7
F36
sI8
F46
sI9
F69
sI10
F55
sI11
F60
sI12
F55
sI13
F58
sI14
F40
sI15
F67
sI16
F51
sa(dp208
I1
F38
sI2
F35
sI3
F32
sI4
F33
sI5
F34
sI6
F12
sI7
F21
sI8
F35
sI9
F38
sI10
F30
sI11
F14
sI12
F14
sI13
F28
sI14
F25
sI15
F29
sI16
F35
sa(dp209
I1
F131
sI2
F44
sI3
F91
sI4
F95
sI5
F71
sI6
F45
sI7
F26
sI8
F67
sI9
F97
sI10
F41
sI11
F47
sI12
F71
sI13
F61
sI14
F79
sI15
F93
sI16
F105
sa(dp210
I1
F143
sI2
F91
sI3
F83
sI4
F105
sI5
F99
sI6
F76
sI7
F53
sI8
F90
sI9
F100
sI10
F64
sI11
F102
sI12
F99
sI13
F80
sI14
F87
sI15
F127
sI16
F134
sa(dp211
I1
F141
sI2
F59
sI3
F88
sI4
F105
sI5
F79
sI6
F25
sI7
F42
sI8
F52
sI9
F95
sI10
F44
sI11
F57
sI12
F59
sI13
F78
sI14
F70
sI15
F68
sI16
F114
sa(dp212
I1
F24
sI2
F16
sI3
F23
sI4
F22
sI5
F32
sI6
F19
sI7
F8
sI8
F46
sI9
F12
sI10
F24
sI11
F15
sI12
F26
sI13
F17
sI14
F46
sI15
F31
sI16
F83
sa(dp213
I1
F138
sI2
F116
sI3
F71
sI4
F109
sI5
F124
sI6
F124
sI7
F68
sI8
F114
sI9
F98
sI10
F71
sI11
F44
sI12
F53
sI13
F74
sI14
F119
sI15
F83
sI16
F101
sa(dp214
I1
F41
sI2
F25
sI3
F23
sI4
F34
sI5
F27
sI6
F13
sI7
F16
sI8
F14
sI9
F32
sI10
F15
sI11
F10
sI12
F18
sI13
F23
sI14
F17
sI15
F26
sI16
F28
sa(dp215
I1
F62
sI2
F30
sI3
F30
sI4
F46
sI5
F33
sI6
F20
sI7
F16
sI8
F22
sI9
F41
sI10
F15
sI11
F31
sI12
F33
sI13
F32
sI14
F26
sI15
F43
sI16
F44
sa(dp216
I1
F78
sI2
F38
sI3
F48
sI4
F40
sI5
F39
sI6
F38
sI7
F38
sI8
F40
sI9
F57
sI10
F34
sI11
F37
sI12
F32
sI13
F30
sI14
F45
sI15
F37
sI16
F32
sa(dp217
I1
F180
sI2
F150
sI3
F162
sI4
F188
sI5
F173
sI6
F120
sI7
F112
sI8
F159
sI9
F179
sI10
F130
sI11
F132
sI12
F175
sI13
F147
sI14
F164
sI15
F211
sI16
F282
sa(dp218
I1
F145
sI2
F103
sI3
F98
sI4
F87
sI5
F113
sI6
F71
sI7
F51
sI8
F82
sI9
F96
sI10
F85
sI11
F77
sI12
F76
sI13
F79
sI14
F58
sI15
F108
sI16
F95
sa(dp219
I1
F63
sI2
F54
sI3
F53
sI4
F36
sI5
F51
sI6
F30
sI7
F39
sI8
F47
sI9
F71
sI10
F40
sI11
F28
sI12
F28
sI13
F20
sI14
F43
sI15
F48
sI16
F53
sa(dp220
I1
F75
sI2
F62
sI3
F48
sI4
F87
sI5
F73
sI6
F58
sI7
F37
sI8
F56
sI9
F57
sI10
F43
sI11
F65
sI12
F57
sI13
F67
sI14
F61
sI15
F72
sI16
F90
sa(dp221
I1
F31
sI2
F38
sI3
F4
sI4
F41
sI5
F44
sI6
F29
sI7
F6
sI8
F24
sI9
F2
sI10
F11
sI11
F3
sI12
F7
sI13
F37
sI14
F25
sI15
F10
sI16
F32
sa(dp222
I1
F43
sI2
F34
sI3
F28
sI4
F30
sI5
F25
sI6
F15
sI7
F13
sI8
F31
sI9
F37
sI10
F12
sI11
F23
sI12
F19
sI13
F30
sI14
F23
sI15
F27
sI16
F34
sa(dp223
I1
F74
sI2
F90
sI3
F69
sI4
F97
sI5
F107
sI6
F85
sI7
F86
sI8
F101
sI9
F75
sI10
F105
sI11
F94
sI12
F77
sI13
F73
sI14
F99
sI15
F103
sI16
F107
sa(dp224
I1
F178
sI2
F95
sI3
F84
sI4
F128
sI5
F107
sI6
F70
sI7
F49
sI8
F84
sI9
F98
sI10
F57
sI11
F48
sI12
F72
sI13
F102
sI14
F88
sI15
F94
sI16
F123
sa(dp225
I1
F132
sI2
F91
sI3
F88
sI4
F130
sI5
F96
sI6
F65
sI7
F53
sI8
F120
sI9
F100
sI10
F64
sI11
F110
sI12
F125
sI13
F113
sI14
F114
sI15
F148
sI16
F200
sa(dp226
I1
F40
sI2
F31
sI3
F26
sI4
F29
sI5
F33
sI6
F25
sI7
F15
sI8
F27
sI9
F25
sI10
F21
sI11
F14
sI12
F22
sI13
F28
sI14
F23
sI15
F27
sI16
F29
sa(dp227
I1
F12
sI2
F15
sI3
F13
sI4
F25
sI5
F23
sI6
F30
sI7
F15
sI8
F33
sI9
F13
sI10
F19
sI11
F10
sI12
F17
sI13
F17
sI14
F37
sI15
F21
sI16
F53
sa(dp228
I1
F81
sI2
F54
sI3
F51
sI4
F64
sI5
F57
sI6
F55
sI7
F51
sI8
F51
sI9
F58
sI10
F52
sI11
F56
sI12
F53
sI13
F54
sI14
F53
sI15
F61
sI16
F77
sa(dp229
I1
F145
sI2
F63
sI3
F68
sI4
F106
sI5
F83
sI6
F42
sI7
F46
sI8
F50
sI9
F88
sI10
F37
sI11
F52
sI12
F57
sI13
F66
sI14
F79
sI15
F68
sI16
F114
sa(dp230
I1
F190
sI2
F87
sI3
F112
sI4
F130
sI5
F108
sI6
F55
sI7
F56
sI8
F57
sI9
F134
sI10
F59
sI11
F81
sI12
F92
sI13
F87
sI14
F75
sI15
F117
sI16
F126
sa(dp231
I1
F198
sI2
F83
sI3
F122
sI4
F157
sI5
F111
sI6
F72
sI7
F54
sI8
F83
sI9
F133
sI10
F68
sI11
F76
sI12
F81
sI13
F118
sI14
F97
sI15
F106
sI16
F151
sa(dp232
I1
F174
sI2
F232
sI3
F154
sI4
F128
sI5
F251
sI6
F192
sI7
F108
sI8
F238
sI9
F108
sI10
F154
sI11
F76
sI12
F134
sI13
F155
sI14
F211
sI15
F134
sI16
F153
sa(dp233
I1
F94
sI2
F45
sI3
F60
sI4
F40
sI5
F44
sI6
F38
sI7
F25
sI8
F60
sI9
F72
sI10
F32
sI11
F22
sI12
F25
sI13
F28
sI14
F52
sI15
F45
sI16
F46
sa(dp234
I1
F45
sI2
F43
sI3
F27
sI4
F32
sI5
F39
sI6
F29
sI7
F28
sI8
F38
sI9
F42
sI10
F30
sI11
F25
sI12
F16
sI13
F21
sI14
F32
sI15
F33
sI16
F29
sa(dp235
I1
F95
sI2
F63
sI3
F59
sI4
F90
sI5
F79
sI6
F47
sI7
F41
sI8
F43
sI9
F72
sI10
F41
sI11
F41
sI12
F56
sI13
F61
sI14
F59
sI15
F69
sI16
F74
sa(dp236
I1
F147
sI2
F103
sI3
F103
sI4
F102
sI5
F135
sI6
F69
sI7
F62
sI8
F66
sI9
F108
sI10
F73
sI11
F108
sI12
F86
sI13
F65
sI14
F87
sI15
F102
sI16
F94
sa(dp237
I1
F43
sI2
F27
sI3
F35
sI4
F58
sI5
F36
sI6
F21
sI7
F11
sI8
F30
sI9
F42
sI10
F20
sI11
F27
sI12
F40
sI13
F42
sI14
F30
sI15
F56
sI16
F41
sa(dp238
I1
F87
sI2
F58
sI3
F68
sI4
F43
sI5
F60
sI6
F44
sI7
F45
sI8
F37
sI9
F69
sI10
F47
sI11
F42
sI12
F28
sI13
F40
sI14
F37
sI15
F31
sI16
F42
sa(dp239
I1
F54
sI2
F53
sI3
F48
sI4
F42
sI5
F60
sI6
F62
sI7
F39
sI8
F60
sI9
F49
sI10
F46
sI11
F40
sI12
F40
sI13
F34
sI14
F60
sI15
F48
sI16
F55
sa(dp240
I1
F62
sI2
F51
sI3
F51
sI4
F60
sI5
F51
sI6
F49
sI7
F30
sI8
F53
sI9
F63
sI10
F29
sI11
F56
sI12
F56
sI13
F48
sI14
F54
sI15
F67
sI16
F60
sa(dp241
I1
F133
sI2
F77
sI3
F78
sI4
F144
sI5
F122
sI6
F76
sI7
F67
sI8
F87
sI9
F85
sI10
F80
sI11
F124
sI12
F126
sI13
F92
sI14
F119
sI15
F146
sI16
F193
sa(dp242
I1
F84
sI2
F55
sI3
F71
sI4
F76
sI5
F66
sI6
F56
sI7
F54
sI8
F75
sI9
F76
sI10
F70
sI11
F71
sI12
F69
sI13
F59
sI14
F70
sI15
F91
sI16
F95
sa(dp243
I1
F131
sI2
F94
sI3
F88
sI4
F145
sI5
F128
sI6
F78
sI7
F63
sI8
F78
sI9
F84
sI10
F78
sI11
F94
sI12
F109
sI13
F115
sI14
F97
sI15
F120
sI16
F152
sa(dp244
I1
F139
sI2
F78
sI3
F75
sI4
F97
sI5
F86
sI6
F60
sI7
F54
sI8
F55
sI9
F90
sI10
F60
sI11
F90
sI12
F64
sI13
F74
sI14
F57
sI15
F85
sI16
F83
sa(dp245
I1
F61
sI2
F42
sI3
F48
sI4
F43
sI5
F51
sI6
F38
sI7
F47
sI8
F44
sI9
F55
sI10
F53
sI11
F60
sI12
F53
sI13
F27
sI14
F47
sI15
F66
sI16
F43
sa(dp246
I1
F147
sI2
F73
sI3
F84
sI4
F119
sI5
F85
sI6
F42
sI7
F49
sI8
F51
sI9
F124
sI10
F35
sI11
F53
sI12
F51
sI13
F66
sI14
F77
sI15
F78
sI16
F92
sa(dp247
I1
F176
sI2
F90
sI3
F75
sI4
F104
sI5
F104
sI6
F87
sI7
F39
sI8
F63
sI9
F71
sI10
F52
sI11
F40
sI12
F48
sI13
F94
sI14
F64
sI15
F57
sI16
F92
sa(dp248
I1
F121
sI2
F84
sI3
F87
sI4
F62
sI5
F88
sI6
F75
sI7
F53
sI8
F71
sI9
F95
sI10
F58
sI11
F67
sI12
F65
sI13
F50
sI14
F70
sI15
F78
sI16
F102
sa(dp249
I1
F119
sI2
F77
sI3
F94
sI4
F111
sI5
F83
sI6
F39
sI7
F40
sI8
F81
sI9
F119
sI10
F54
sI11
F74
sI12
F75
sI13
F80
sI14
F73
sI15
F114
sI16
F135
sa(dp250
I1
F23
sI2
F10
sI3
F18
sI4
F24
sI5
F21
sI6
F13
sI7
F11
sI8
F18
sI9
F15
sI10
F18
sI11
F12
sI12
F20
sI13
F16
sI14
F22
sI15
F24
sI16
F35
sa(dp251
I1
F123
sI2
F106
sI3
F66
sI4
F128
sI5
F113
sI6
F95
sI7
F44
sI8
F133
sI9
F85
sI10
F58
sI11
F103
sI12
F122
sI13
F102
sI14
F126
sI15
F155
sI16
F208
sa(dp252
I1
F19
sI2
F16
sI3
F20
sI4
F19
sI5
F26
sI6
F11
sI7
F10
sI8
F14
sI9
F16
sI10
F14
sI11
F13
sI12
F13
sI13
F13
sI14
F20
sI15
F13
sI16
F24
sa(dp253
I1
F21
sI2
F10
sI3
F11
sI4
F26
sI5
F19
sI6
F19
sI7
F20
sI8
F29
sI9
F11
sI10
F36
sI11
F15
sI12
F12
sI13
F17
sI14
F22
sI15
F28
sI16
F21
sa(dp254
I1
F23
sI2
F18
sI3
F22
sI4
F22
sI5
F28
sI6
F12
sI7
F20
sI8
F34
sI9
F21
sI10
F40
sI11
F25
sI12
F16
sI13
F13
sI14
F24
sI15
F35
sI16
F38
sa(dp255
I1
F90
sI2
F78
sI3
F91
sI4
F87
sI5
F98
sI6
F47
sI7
F55
sI8
F54
sI9
F109
sI10
F79
sI11
F85
sI12
F69
sI13
F48
sI14
F50
sI15
F112
sI16
F80
sa(dp256
I1
F203
sI2
F118
sI3
F136
sI4
F150
sI5
F139
sI6
F86
sI7
F93
sI8
F97
sI9
F161
sI10
F105
sI11
F108
sI12
F103
sI13
F104
sI14
F106
sI15
F140
sI16
F133
sa(dp257
I1
F97
sI2
F62
sI3
F58
sI4
F89
sI5
F63
sI6
F42
sI7
F29
sI8
F61
sI9
F74
sI10
F37
sI11
F63
sI12
F55
sI13
F72
sI14
F54
sI15
F79
sI16
F91
sa(dp258
I1
F212
sI2
F80
sI3
F133
sI4
F104
sI5
F99
sI6
F46
sI7
F36
sI8
F57
sI9
F149
sI10
F50
sI11
F80
sI12
F56
sI13
F68
sI14
F62
sI15
F87
sI16
F93
sa(dp259
I1
F32
sI2
F19
sI3
F19
sI4
F29
sI5
F26
sI6
F22
sI7
F18
sI8
F21
sI9
F25
sI10
F20
sI11
F16
sI12
F19
sI13
F16
sI14
F26
sI15
F27
sI16
F35
sa(dp260
I1
F74
sI2
F74
sI3
F52
sI4
F45
sI5
F66
sI6
F54
sI7
F43
sI8
F71
sI9
F66
sI10
F36
sI11
F50
sI12
F76
sI13
F39
sI14
F70
sI15
F83
sI16
F82
sa(dp261
I1
F40
sI2
F49
sI3
F44
sI4
F32
sI5
F57
sI6
F37
sI7
F22
sI8
F38
sI9
F38
sI10
F38
sI11
F46
sI12
F38
sI13
F30
sI14
F30
sI15
F48
sI16
F37
sa(dp262
I1
F28
sI2
F27
sI3
F16
sI4
F48
sI5
F39
sI6
F24
sI7
F20
sI8
F34
sI9
F15
sI10
F23
sI11
F25
sI12
F33
sI13
F37
sI14
F43
sI15
F35
sI16
F65
sa(dp263
I1
F137
sI2
F41
sI3
F67
sI4
F96
sI5
F54
sI6
F47
sI7
F29
sI8
F37
sI9
F82
sI10
F33
sI11
F37
sI12
F42
sI13
F67
sI14
F46
sI15
F62
sI16
F81
sa(dp264
I1
F93
sI2
F43
sI3
F57
sI4
F80
sI5
F61
sI6
F35
sI7
F31
sI8
F47
sI9
F62
sI10
F38
sI11
F44
sI12
F55
sI13
F57
sI14
F58
sI15
F67
sI16
F91
sa(dp265
I1
F63
sI2
F35
sI3
F45
sI4
F72
sI5
F57
sI6
F35
sI7
F27
sI8
F32
sI9
F60
sI10
F41
sI11
F35
sI12
F28
sI13
F34
sI14
F40
sI15
F58
sI16
F60
sa(dp266
I1
F104
sI2
F48
sI3
F80
sI4
F71
sI5
F61
sI6
F49
sI7
F39
sI8
F61
sI9
F84
sI10
F46
sI11
F55
sI12
F61
sI13
F54
sI14
F67
sI15
F72
sI16
F103
sa(dp267
I1
F120
sI2
F65
sI3
F98
sI4
F90
sI5
F89
sI6
F52
sI7
F46
sI8
F45
sI9
F110
sI10
F56
sI11
F55
sI12
F56
sI13
F54
sI14
F59
sI15
F78
sI16
F65
sa(dp268
I1
F192
sI2
F59
sI3
F74
sI4
F112
sI5
F70
sI6
F38
sI7
F26
sI8
F47
sI9
F81
sI10
F33
sI11
F47
sI12
F57
sI13
F94
sI14
F51
sI15
F71
sI16
F115
sa(dp269
I1
F50
sI2
F49
sI3
F36
sI4
F53
sI5
F62
sI6
F56
sI7
F45
sI8
F65
sI9
F46
sI10
F46
sI11
F28
sI12
F50
sI13
F30
sI14
F77
sI15
F61
sI16
F71
sa(dp270
I1
F215
sI2
F94
sI3
F138
sI4
F172
sI5
F140
sI6
F72
sI7
F74
sI8
F96
sI9
F138
sI10
F96
sI11
F107
sI12
F123
sI13
F126
sI14
F120
sI15
F145
sI16
F197
sa(dp271
I1
F147
sI2
F66
sI3
F71
sI4
F87
sI5
F80
sI6
F42
sI7
F27
sI8
F55
sI9
F68
sI10
F32
sI11
F59
sI12
F73
sI13
F76
sI14
F64
sI15
F75
sI16
F101
sa(dp272
I1
F139
sI2
F89
sI3
F79
sI4
F158
sI5
F103
sI6
F66
sI7
F68
sI8
F97
sI9
F103
sI10
F77
sI11
F96
sI12
F106
sI13
F120
sI14
F102
sI15
F139
sI16
F219
sa(dp273
I1
F136
sI2
F102
sI3
F105
sI4
F97
sI5
F115
sI6
F90
sI7
F50
sI8
F91
sI9
F120
sI10
F61
sI11
F94
sI12
F94
sI13
F69
sI14
F93
sI15
F120
sI16
F117
sa(dp274
I1
F35
sI2
F39
sI3
F24
sI4
F50
sI5
F51
sI6
F40
sI7
F23
sI8
F49
sI9
F22
sI10
F34
sI11
F26
sI12
F32
sI13
F39
sI14
F50
sI15
F41
sI16
F54
sa(dp275
I1
F116
sI2
F75
sI3
F77
sI4
F70
sI5
F87
sI6
F62
sI7
F34
sI8
F64
sI9
F73
sI10
F45
sI11
F42
sI12
F48
sI13
F61
sI14
F65
sI15
F56
sI16
F95
sa(dp276
I1
F26
sI2
F17
sI3
F11
sI4
F21
sI5
F18
sI6
F21
sI7
F27
sI8
F34
sI9
F12
sI10
F29
sI11
F5
sI12
F21
sI13
F19
sI14
F33
sI15
F24
sI16
F49
sa(dp277
I1
F134
sI2
F104
sI3
F127
sI4
F140
sI5
F101
sI6
F67
sI7
F90
sI8
F84
sI9
F182
sI10
F94
sI11
F133
sI12
F97
sI13
F88
sI14
F77
sI15
F156
sI16
F104
sa(dp278
I1
F61
sI2
F29
sI3
F37
sI4
F27
sI5
F44
sI6
F25
sI7
F18
sI8
F30
sI9
F29
sI10
F36
sI11
F21
sI12
F19
sI13
F20
sI14
F27
sI15
F29
sI16
F13
sa(dp279
I1
F75
sI2
F68
sI3
F85
sI4
F69
sI5
F78
sI6
F50
sI7
F51
sI8
F55
sI9
F85
sI10
F60
sI11
F78
sI12
F55
sI13
F59
sI14
F56
sI15
F64
sI16
F64
sa(dp280
I1
F89
sI2
F46
sI3
F47
sI4
F59
sI5
F55
sI6
F41
sI7
F26
sI8
F41
sI9
F59
sI10
F29
sI11
F36
sI12
F37
sI13
F38
sI14
F47
sI15
F52
sI16
F70
sa(dp281
I1
F41
sI2
F42
sI3
F52
sI4
F46
sI5
F54
sI6
F43
sI7
F54
sI8
F42
sI9
F55
sI10
F84
sI11
F45
sI12
F37
sI13
F31
sI14
F24
sI15
F70
sI16
F31
sa(dp282
I1
F59
sI2
F46
sI3
F42
sI4
F51
sI5
F54
sI6
F39
sI7
F18
sI8
F28
sI9
F49
sI10
F21
sI11
F30
sI12
F36
sI13
F36
sI14
F33
sI15
F46
sI16
F51
sa(dp283
I1
F208
sI2
F135
sI3
F125
sI4
F135
sI5
F156
sI6
F126
sI7
F95
sI8
F116
sI9
F148
sI10
F112
sI11
F124
sI12
F113
sI13
F91
sI14
F120
sI15
F153
sI16
F137
sa(dp284
I1
F127
sI2
F89
sI3
F73
sI4
F91
sI5
F91
sI6
F65
sI7
F40
sI8
F88
sI9
F94
sI10
F46
sI11
F58
sI12
F74
sI13
F68
sI14
F84
sI15
F101
sI16
F102
sa(dp285
I1
F44
sI2
F20
sI3
F20
sI4
F24
sI5
F26
sI6
F13
sI7
F5
sI8
F15
sI9
F14
sI10
F14
sI11
F8
sI12
F18
sI13
F24
sI14
F12
sI15
F21
sI16
F33
sa(dp286
I1
F26
sI2
F26
sI3
F20
sI4
F28
sI5
F26
sI6
F24
sI7
F22
sI8
F33
sI9
F27
sI10
F28
sI11
F11
sI12
F20
sI13
F20
sI14
F27
sI15
F34
sI16
F31
sa(dp287
I1
F128
sI2
F55
sI3
F87
sI4
F66
sI5
F58
sI6
F35
sI7
F38
sI8
F49
sI9
F95
sI10
F34
sI11
F47
sI12
F43
sI13
F55
sI14
F56
sI15
F47
sI16
F56
sa(dp288
I1
F65
sI2
F46
sI3
F47
sI4
F47
sI5
F47
sI6
F38
sI7
F32
sI8
F35
sI9
F60
sI10
F41
sI11
F44
sI12
F38
sI13
F33
sI14
F27
sI15
F60
sI16
F26
sa(dp289
I1
F119
sI2
F89
sI3
F89
sI4
F111
sI5
F115
sI6
F57
sI7
F54
sI8
F69
sI9
F95
sI10
F71
sI11
F65
sI12
F67
sI13
F79
sI14
F78
sI15
F90
sI16
F82
sa(dp290
I1
F46
sI2
F31
sI3
F26
sI4
F46
sI5
F41
sI6
F46
sI7
F18
sI8
F126
sI9
F28
sI10
F64
sI11
F24
sI12
F27
sI13
F33
sI14
F90
sI15
F76
sI16
F73
sa(dp291
I1
F26
sI2
F21
sI3
F21
sI4
F23
sI5
F28
sI6
F18
sI7
F25
sI8
F18
sI9
F20
sI10
F26
sI11
F21
sI12
F20
sI13
F16
sI14
F24
sI15
F21
sI16
F25
sa(dp292
I1
F38
sI2
F19
sI3
F22
sI4
F27
sI5
F25
sI6
F13
sI7
F11
sI8
F15
sI9
F25
sI10
F18
sI11
F18
sI12
F14
sI13
F18
sI14
F14
sI15
F24
sI16
F25
sa(dp293
I1
F209
sI2
F130
sI3
F107
sI4
F166
sI5
F156
sI6
F104
sI7
F81
sI8
F141
sI9
F130
sI10
F85
sI11
F104
sI12
F110
sI13
F116
sI14
F163
sI15
F138
sI16
F145
sa(dp294
I1
F26
sI2
F33
sI3
F37
sI4
F29
sI5
F46
sI6
F39
sI7
F17
sI8
F34
sI9
F30
sI10
F33
sI11
F30
sI12
F33
sI13
F23
sI14
F31
sI15
F42
sI16
F44
sa(dp295
I1
F59
sI2
F38
sI3
F36
sI4
F49
sI5
F49
sI6
F46
sI7
F29
sI8
F41
sI9
F45
sI10
F41
sI11
F36
sI12
F41
sI13
F29
sI14
F40
sI15
F62
sI16
F63
sa(dp296
I1
F88
sI2
F59
sI3
F56
sI4
F62
sI5
F69
sI6
F47
sI7
F33
sI8
F54
sI9
F65
sI10
F54
sI11
F59
sI12
F52
sI13
F42
sI14
F43
sI15
F83
sI16
F80
sa(dp297
I1
F23
sI2
F30
sI3
F20
sI4
F27
sI5
F28
sI6
F27
sI7
F22
sI8
F25
sI9
F29
sI10
F22
sI11
F17
sI12
F21
sI13
F20
sI14
F23
sI15
F30
sI16
F30
sa(dp298
I1
F167
sI2
F103
sI3
F143
sI4
F126
sI5
F136
sI6
F62
sI7
F88
sI8
F86
sI9
F139
sI10
F121
sI11
F111
sI12
F109
sI13
F97
sI14
F86
sI15
F138
sI16
F131
sa(dp299
I1
F63
sI2
F46
sI3
F43
sI4
F52
sI5
F62
sI6
F30
sI7
F29
sI8
F30
sI9
F50
sI10
F39
sI11
F41
sI12
F35
sI13
F29
sI14
F36
sI15
F52
sI16
F29
sa(dp300
I1
F34
sI2
F18
sI3
F21
sI4
F36
sI5
F18
sI6
F9
sI7
F11
sI8
F16
sI9
F22
sI10
F11
sI11
F12
sI12
F24
sI13
F34
sI14
F16
sI15
F26
sI16
F39
sa(dp301
I1
F63
sI2
F35
sI3
F41
sI4
F24
sI5
F33
sI6
F21
sI7
F17
sI8
F11
sI9
F38
sI10
F14
sI11
F29
sI12
F20
sI13
F28
sI14
F12
sI15
F15
sI16
F20
sa(dp302
I1
F64
sI2
F58
sI3
F52
sI4
F57
sI5
F67
sI6
F38
sI7
F36
sI8
F48
sI9
F61
sI10
F52
sI11
F67
sI12
F59
sI13
F39
sI14
F41
sI15
F84
sI16
F58
sa(dp303
I1
F41
sI2
F24
sI3
F26
sI4
F37
sI5
F24
sI6
F11
sI7
F14
sI8
F17
sI9
F34
sI10
F11
sI11
F24
sI12
F26
sI13
F29
sI14
F20
sI15
F31
sI16
F40
sa(dp304
I1
F144
sI2
F131
sI3
F103
sI4
F116
sI5
F154
sI6
F168
sI7
F129
sI8
F122
sI9
F116
sI10
F119
sI11
F88
sI12
F94
sI13
F80
sI14
F155
sI15
F97
sI16
F101
sa(dp305
I1
F86
sI2
F69
sI3
F82
sI4
F86
sI5
F72
sI6
F62
sI7
F53
sI8
F62
sI9
F88
sI10
F56
sI11
F85
sI12
F72
sI13
F76
sI14
F62
sI15
F82
sI16
F89
sa(dp306
I1
F90
sI2
F38
sI3
F57
sI4
F47
sI5
F50
sI6
F27
sI7
F26
sI8
F25
sI9
F70
sI10
F31
sI11
F35
sI12
F32
sI13
F21
sI14
F32
sI15
F51
sI16
F57
sa(dp307
I1
F24
sI2
F31
sI3
F20
sI4
F28
sI5
F35
sI6
F29
sI7
F26
sI8
F36
sI9
F23
sI10
F24
sI11
F11
sI12
F27
sI13
F21
sI14
F42
sI15
F28
sI16
F30
sa(dp308
I1
F45
sI2
F38
sI3
F37
sI4
F41
sI5
F41
sI6
F29
sI7
F25
sI8
F38
sI9
F43
sI10
F21
sI11
F33
sI12
F38
sI13
F32
sI14
F45
sI15
F40
sI16
F55
sa(dp309
I1
F97
sI2
F135
sI3
F57
sI4
F120
sI5
F140
sI6
F125
sI7
F105
sI8
F142
sI9
F90
sI10
F107
sI11
F108
sI12
F101
sI13
F82
sI14
F145
sI15
F136
sI16
F174
sa(dp310
I1
F106
sI2
F126
sI3
F112
sI4
F86
sI5
F144
sI6
F102
sI7
F97
sI8
F97
sI9
F126
sI10
F97
sI11
F110
sI12
F129
sI13
F53
sI14
F115
sI15
F144
sI16
F158
sa(dp311
I1
F83
sI2
F32
sI3
F46
sI4
F48
sI5
F42
sI6
F17
sI7
F19
sI8
F18
sI9
F54
sI10
F23
sI11
F19
sI12
F28
sI13
F29
sI14
F24
sI15
F41
sI16
F33
sa(dp312
I1
F104
sI2
F42
sI3
F43
sI4
F60
sI5
F54
sI6
F22
sI7
F15
sI8
F30
sI9
F52
sI10
F18
sI11
F28
sI12
F24
sI13
F39
sI14
F39
sI15
F36
sI16
F83
sa(dp313
I1
F139
sI2
F89
sI3
F107
sI4
F119
sI5
F95
sI6
F80
sI7
F59
sI8
F66
sI9
F139
sI10
F45
sI11
F73
sI12
F93
sI13
F81
sI14
F86
sI15
F111
sI16
F145
sa(dp314
I1
F45
sI2
F41
sI3
F51
sI4
F46
sI5
F45
sI6
F35
sI7
F37
sI8
F22
sI9
F71
sI10
F40
sI11
F63
sI12
F36
sI13
F22
sI14
F23
sI15
F59
sI16
F21
sa(dp315
I1
F58
sI2
F35
sI3
F51
sI4
F37
sI5
F31
sI6
F26
sI7
F28
sI8
F39
sI9
F61
sI10
F34
sI11
F29
sI12
F42
sI13
F31
sI14
F29
sI15
F58
sI16
F77
sa(dp316
I1
F293
sI2
F91
sI3
F120
sI4
F186
sI5
F119
sI6
F52
sI7
F34
sI8
F82
sI9
F133
sI10
F41
sI11
F61
sI12
F70
sI13
F144
sI14
F103
sI15
F91
sI16
F185
sa(dp317
I1
F75
sI2
F46
sI3
F54
sI4
F48
sI5
F57
sI6
F30
sI7
F24
sI8
F31
sI9
F48
sI10
F30
sI11
F39
sI12
F29
sI13
F43
sI14
F36
sI15
F29
sI16
F32
sa(dp318
I1
F142
sI2
F56
sI3
F69
sI4
F78
sI5
F56
sI6
F42
sI7
F23
sI8
F61
sI9
F69
sI10
F29
sI11
F31
sI12
F41
sI13
F78
sI14
F55
sI15
F47
sI16
F69
sa(dp319
I1
F143
sI2
F89
sI3
F77
sI4
F95
sI5
F93
sI6
F48
sI7
F60
sI8
F45
sI9
F105
sI10
F48
sI11
F64
sI12
F69
sI13
F63
sI14
F61
sI15
F85
sI16
F87
sa(dp320
I1
F112
sI2
F52
sI3
F62
sI4
F75
sI5
F69
sI6
F33
sI7
F30
sI8
F38
sI9
F70
sI10
F42
sI11
F38
sI12
F54
sI13
F49
sI14
F43
sI15
F75
sI16
F72
sa(dp321
I1
F40
sI2
F18
sI3
F25
sI4
F37
sI5
F26
sI6
F11
sI7
F12
sI8
F20
sI9
F31
sI10
F16
sI11
F17
sI12
F18
sI13
F22
sI14
F24
sI15
F29
sI16
F36
sa(dp322
I1
F124
sI2
F44
sI3
F57
sI4
F107
sI5
F73
sI6
F39
sI7
F22
sI8
F47
sI9
F72
sI10
F33
sI11
F27
sI12
F47
sI13
F63
sI14
F65
sI15
F73
sI16
F106
sa(dp323
I1
F200
sI2
F111
sI3
F103
sI4
F159
sI5
F112
sI6
F72
sI7
F52
sI8
F94
sI9
F141
sI10
F52
sI11
F87
sI12
F91
sI13
F120
sI14
F95
sI15
F129
sI16
F137
sa(dp324
I1
F35
sI2
F26
sI3
F20
sI4
F28
sI5
F33
sI6
F35
sI7
F20
sI8
F54
sI9
F17
sI10
F31
sI11
F9
sI12
F20
sI13
F24
sI14
F50
sI15
F28
sI16
F44
sa(dp325
I1
F84
sI2
F36
sI3
F57
sI4
F65
sI5
F46
sI6
F22
sI7
F19
sI8
F22
sI9
F59
sI10
F26
sI11
F45
sI12
F30
sI13
F53
sI14
F25
sI15
F39
sI16
F32
sa(dp326
I1
F14
sI2
F16
sI3
F6
sI4
F29
sI5
F20
sI6
F20
sI7
F13
sI8
F20
sI9
F12
sI10
F13
sI11
F12
sI12
F16
sI13
F18
sI14
F24
sI15
F23
sI16
F55
sa(dp327
I1
F57
sI2
F45
sI3
F53
sI4
F45
sI5
F54
sI6
F61
sI7
F50
sI8
F42
sI9
F59
sI10
F51
sI11
F60
sI12
F47
sI13
F30
sI14
F50
sI15
F54
sI16
F37
sa(dp328
I1
F14
sI2
F16
sI3
F6
sI4
F29
sI5
F20
sI6
F20
sI7
F13
sI8
F20
sI9
F12
sI10
F13
sI11
F12
sI12
F16
sI13
F18
sI14
F24
sI15
F23
sI16
F55
sa(dp329
I1
F29
sI2
F12
sI3
F14
sI4
F10
sI5
F16
sI6
F5
sI7
F2
sI8
F9
sI9
F14
sI10
F8
sI11
F5
sI12
F2
sI13
F6
sI14
F7
sI15
F8
sI16
F5
sa(dp330
I1
F53
sI2
F50
sI3
F30
sI4
F29
sI5
F44
sI6
F21
sI7
F30
sI8
F27
sI9
F41
sI10
F23
sI11
F31
sI12
F23
sI13
F24
sI14
F28
sI15
F27
sI16
F16
sa(dp331
I1
F42
sI2
F36
sI3
F36
sI4
F30
sI5
F34
sI6
F30
sI7
F17
sI8
F31
sI9
F40
sI10
F24
sI11
F31
sI12
F33
sI13
F27
sI14
F22
sI15
F45
sI16
F25
sa(dp332
I1
F260
sI2
F114
sI3
F153
sI4
F160
sI5
F147
sI6
F109
sI7
F66
sI8
F133
sI9
F169
sI10
F105
sI11
F114
sI12
F163
sI13
F111
sI14
F127
sI15
F218
sI16
F211
sa(dp333
I1
F183
sI2
F108
sI3
F92
sI4
F130
sI5
F122
sI6
F105
sI7
F73
sI8
F126
sI9
F109
sI10
F71
sI11
F53
sI12
F73
sI13
F99
sI14
F142
sI15
F88
sI16
F119
sa(dp334
I1
F91
sI2
F75
sI3
F85
sI4
F58
sI5
F89
sI6
F35
sI7
F65
sI8
F38
sI9
F83
sI10
F77
sI11
F53
sI12
F43
sI13
F46
sI14
F40
sI15
F53
sI16
F50
sa(dp335
I1
F83
sI2
F54
sI3
F70
sI4
F104
sI5
F70
sI6
F55
sI7
F33
sI8
F70
sI9
F70
sI10
F49
sI11
F70
sI12
F86
sI13
F88
sI14
F70
sI15
F102
sI16
F135
sa(dp336
I1
F157
sI2
F58
sI3
F83
sI4
F78
sI5
F69
sI6
F49
sI7
F52
sI8
F87
sI9
F102
sI10
F42
sI11
F59
sI12
F69
sI13
F48
sI14
F108
sI15
F78
sI16
F84
sa(dp337
I1
F124
sI2
F73
sI3
F98
sI4
F69
sI5
F84
sI6
F71
sI7
F47
sI8
F70
sI9
F101
sI10
F71
sI11
F67
sI12
F49
sI13
F54
sI14
F57
sI15
F77
sI16
F64
sa(dp338
I1
F126
sI2
F60
sI3
F54
sI4
F77
sI5
F81
sI6
F51
sI7
F26
sI8
F52
sI9
F49
sI10
F46
sI11
F22
sI12
F22
sI13
F61
sI14
F53
sI15
F37
sI16
F49
sa(dp339
I1
F6
sI2
F14
sI3
F12
sI4
F15
sI5
F14
sI6
F15
sI7
F12
sI8
F33
sI9
F10
sI10
F19
sI11
F9
sI12
F27
sI13
F17
sI14
F26
sI15
F32
sI16
F42
sa(dp340
I1
F157
sI2
F103
sI3
F94
sI4
F128
sI5
F101
sI6
F57
sI7
F63
sI8
F104
sI9
F115
sI10
F62
sI11
F66
sI12
F77
sI13
F109
sI14
F103
sI15
F97
sI16
F145
sa(dp341
I1
F30
sI2
F27
sI3
F20
sI4
F23
sI5
F36
sI6
F36
sI7
F17
sI8
F29
sI9
F18
sI10
F23
sI11
F7
sI12
F18
sI13
F15
sI14
F32
sI15
F23
sI16
F37
sa(dp342
I1
F18
sI2
F21
sI3
F21
sI4
F24
sI5
F20
sI6
F21
sI7
F31
sI8
F19
sI9
F24
sI10
F29
sI11
F8
sI12
F19
sI13
F21
sI14
F20
sI15
F21
sI16
F24
sa(dp343
I1
F54
sI2
F17
sI3
F26
sI4
F29
sI5
F25
sI6
F12
sI7
F10
sI8
F16
sI9
F25
sI10
F19
sI11
F10
sI12
F10
sI13
F22
sI14
F15
sI15
F18
sI16
F15
sa(dp344
I1
F83
sI2
F79
sI3
F82
sI4
F103
sI5
F100
sI6
F76
sI7
F75
sI8
F75
sI9
F103
sI10
F88
sI11
F79
sI12
F55
sI13
F61
sI14
F83
sI15
F89
sI16
F78
sa(dp345
I1
F101
sI2
F52
sI3
F72
sI4
F79
sI5
F79
sI6
F56
sI7
F30
sI8
F60
sI9
F78
sI10
F46
sI11
F78
sI12
F81
sI13
F46
sI14
F71
sI15
F103
sI16
F97
sa(dp346
I1
F37
sI2
F22
sI3
F16
sI4
F19
sI5
F19
sI6
F17
sI7
F9
sI8
F26
sI9
F17
sI10
F9
sI11
F9
sI12
F16
sI13
F20
sI14
F23
sI15
F18
sI16
F37
sa(dp347
I1
F163
sI2
F93
sI3
F97
sI4
F117
sI5
F91
sI6
F72
sI7
F73
sI8
F79
sI9
F124
sI10
F73
sI11
F96
sI12
F92
sI13
F92
sI14
F77
sI15
F119
sI16
F152
sa(dp348
I1
F143
sI2
F80
sI3
F83
sI4
F70
sI5
F136
sI6
F53
sI7
F28
sI8
F69
sI9
F45
sI10
F65
sI11
F88
sI12
F60
sI13
F51
sI14
F88
sI15
F60
sI16
F78
sa(dp349
I1
F95
sI2
F46
sI3
F70
sI4
F76
sI5
F60
sI6
F30
sI7
F35
sI8
F22
sI9
F70
sI10
F35
sI11
F48
sI12
F51
sI13
F61
sI14
F36
sI15
F52
sI16
F44
sa(dp350
I1
F13
sI2
F25
sI3
F20
sI4
F18
sI5
F22
sI6
F28
sI7
F18
sI8
F41
sI9
F22
sI10
F26
sI11
F19
sI12
F21
sI13
F19
sI14
F30
sI15
F31
sI16
F32
sa(dp351
I1
F143
sI2
F73
sI3
F79
sI4
F61
sI5
F70
sI6
F68
sI7
F39
sI8
F77
sI9
F104
sI10
F46
sI11
F47
sI12
F55
sI13
F39
sI14
F67
sI15
F87
sI16
F124
sa(dp352
I1
F39
sI2
F25
sI3
F35
sI4
F39
sI5
F42
sI6
F20
sI7
F15
sI8
F25
sI9
F26
sI10
F32
sI11
F17
sI12
F30
sI13
F31
sI14
F25
sI15
F38
sI16
F32
sa(dp353
I1
F209
sI2
F91
sI3
F101
sI4
F152
sI5
F118
sI6
F73
sI7
F54
sI8
F69
sI9
F113
sI10
F80
sI11
F88
sI12
F76
sI13
F113
sI14
F70
sI15
F114
sI16
F119
sa(dp354
I1
F54
sI2
F80
sI3
F33
sI4
F35
sI5
F69
sI6
F61
sI7
F42
sI8
F92
sI9
F37
sI10
F61
sI11
F36
sI12
F43
sI13
F42
sI14
F62
sI15
F66
sI16
F71
sa(dp355
I1
F75
sI2
F43
sI3
F44
sI4
F33
sI5
F39
sI6
F25
sI7
F27
sI8
F56
sI9
F48
sI10
F29
sI11
F45
sI12
F55
sI13
F33
sI14
F50
sI15
F61
sI16
F70
sa(dp356
I1
F109
sI2
F100
sI3
F117
sI4
F68
sI5
F104
sI6
F78
sI7
F76
sI8
F52
sI9
F140
sI10
F81
sI11
F62
sI12
F45
sI13
F41
sI14
F51
sI15
F73
sI16
F44
sa(dp357
I1
F159
sI2
F131
sI3
F161
sI4
F116
sI5
F138
sI6
F75
sI7
F65
sI8
F115
sI9
F156
sI10
F110
sI11
F95
sI12
F96
sI13
F113
sI14
F77
sI15
F137
sI16
F99
sa(dp358
I1
F102
sI2
F64
sI3
F81
sI4
F63
sI5
F71
sI6
F45
sI7
F44
sI8
F51
sI9
F90
sI10
F52
sI11
F45
sI12
F37
sI13
F46
sI14
F50
sI15
F55
sI16
F32
sa(dp359
I1
F110
sI2
F36
sI3
F64
sI4
F85
sI5
F50
sI6
F33
sI7
F28
sI8
F42
sI9
F77
sI10
F29
sI11
F41
sI12
F51
sI13
F57
sI14
F55
sI15
F66
sI16
F92
sa(dp360
I1
F116
sI2
F58
sI3
F54
sI4
F86
sI5
F66
sI6
F37
sI7
F29
sI8
F44
sI9
F64
sI10
F38
sI11
F38
sI12
F34
sI13
F67
sI14
F43
sI15
F54
sI16
F62
sa(dp361
I1
F71
sI2
F42
sI3
F43
sI4
F41
sI5
F42
sI6
F21
sI7
F34
sI8
F25
sI9
F56
sI10
F32
sI11
F37
sI12
F22
sI13
F28
sI14
F27
sI15
F33
sI16
F35
sa(dp362
I1
F20
sI2
F15
sI3
F17
sI4
F24
sI5
F16
sI6
F9
sI7
F9
sI8
F27
sI9
F20
sI10
F15
sI11
F14
sI12
F13
sI13
F19
sI14
F22
sI15
F23
sI16
F54
sa(dp363
I1
F233
sI2
F166
sI3
F137
sI4
F156
sI5
F189
sI6
F129
sI7
F102
sI8
F156
sI9
F173
sI10
F116
sI11
F102
sI12
F100
sI13
F96
sI14
F165
sI15
F151
sI16
F147
sa(dp364
I1
F74
sI2
F34
sI3
F61
sI4
F57
sI5
F49
sI6
F30
sI7
F25
sI8
F36
sI9
F58
sI10
F41
sI11
F51
sI12
F53
sI13
F44
sI14
F35
sI15
F67
sI16
F83
sa(dp365
I1
F74
sI2
F50
sI3
F41
sI4
F50
sI5
F51
sI6
F38
sI7
F29
sI8
F47
sI9
F56
sI10
F32
sI11
F32
sI12
F41
sI13
F34
sI14
F45
sI15
F59
sI16
F60
sa(dp366
I1
F158
sI2
F91
sI3
F82
sI4
F111
sI5
F101
sI6
F67
sI7
F55
sI8
F78
sI9
F109
sI10
F47
sI11
F66
sI12
F86
sI13
F73
sI14
F96
sI15
F106
sI16
F148
sa(dp367
I1
F161
sI2
F93
sI3
F104
sI4
F113
sI5
F104
sI6
F70
sI7
F55
sI8
F98
sI9
F114
sI10
F70
sI11
F75
sI12
F88
sI13
F92
sI14
F94
sI15
F113
sI16
F131
sa(dp368
I1
F149
sI2
F108
sI3
F88
sI4
F110
sI5
F144
sI6
F110
sI7
F72
sI8
F89
sI9
F85
sI10
F74
sI11
F60
sI12
F79
sI13
F76
sI14
F123
sI15
F79
sI16
F111
sa(dp369
I1
F46
sI2
F33
sI3
F49
sI4
F25
sI5
F27
sI6
F12
sI7
F16
sI8
F15
sI9
F65
sI10
F18
sI11
F31
sI12
F19
sI13
F15
sI14
F7
sI15
F37
sI16
F20
sa(dp370
I1
F94
sI2
F96
sI3
F50
sI4
F78
sI5
F90
sI6
F86
sI7
F47
sI8
F147
sI9
F61
sI10
F68
sI11
F78
sI12
F90
sI13
F73
sI14
F120
sI15
F122
sI16
F103
sa(dp371
I1
F147
sI2
F74
sI3
F79
sI4
F92
sI5
F86
sI6
F62
sI7
F45
sI8
F89
sI9
F89
sI10
F63
sI11
F89
sI12
F85
sI13
F70
sI14
F83
sI15
F113
sI16
F123
sa(dp372
I1
F62
sI2
F28
sI3
F39
sI4
F37
sI5
F38
sI6
F25
sI7
F16
sI8
F18
sI9
F47
sI10
F21
sI11
F17
sI12
F24
sI13
F19
sI14
F23
sI15
F37
sI16
F35
sa(dp373
I1
F138
sI2
F79
sI3
F80
sI4
F96
sI5
F95
sI6
F74
sI7
F42
sI8
F86
sI9
F84
sI10
F54
sI11
F64
sI12
F70
sI13
F76
sI14
F90
sI15
F86
sI16
F136
sa(dp374
I1
F146
sI2
F117
sI3
F102
sI4
F88
sI5
F127
sI6
F77
sI7
F58
sI8
F91
sI9
F127
sI10
F64
sI11
F88
sI12
F59
sI13
F53
sI14
F95
sI15
F90
sI16
F95
sa(dp375
I1
F42
sI2
F15
sI3
F24
sI4
F30
sI5
F23
sI6
F12
sI7
F8
sI8
F11
sI9
F29
sI10
F9
sI11
F19
sI12
F14
sI13
F17
sI14
F18
sI15
F20
sI16
F29
sa(dp376
I1
F56
sI2
F24
sI3
F21
sI4
F30
sI5
F36
sI6
F23
sI7
F22
sI8
F14
sI9
F21
sI10
F24
sI11
F20
sI12
F18
sI13
F18
sI14
F24
sI15
F20
sI16
F32
sa(dp377
I1
F57
sI2
F51
sI3
F48
sI4
F50
sI5
F53
sI6
F47
sI7
F41
sI8
F43
sI9
F55
sI10
F38
sI11
F47
sI12
F56
sI13
F41
sI14
F48
sI15
F60
sI16
F72
sa(dp378
I1
F79
sI2
F67
sI3
F65
sI4
F98
sI5
F95
sI6
F76
sI7
F62
sI8
F100
sI9
F70
sI10
F92
sI11
F71
sI12
F83
sI13
F64
sI14
F98
sI15
F119
sI16
F114
sa(dp379
I1
F178
sI2
F117
sI3
F105
sI4
F98
sI5
F136
sI6
F84
sI7
F47
sI8
F83
sI9
F105
sI10
F55
sI11
F49
sI12
F75
sI13
F78
sI14
F94
sI15
F84
sI16
F101
sa(dp380
I1
F121
sI2
F59
sI3
F103
sI4
F108
sI5
F68
sI6
F43
sI7
F48
sI8
F48
sI9
F121
sI10
F47
sI11
F86
sI12
F76
sI13
F81
sI14
F58
sI15
F93
sI16
F102
sa(dp381
I1
F172
sI2
F75
sI3
F108
sI4
F109
sI5
F89
sI6
F30
sI7
F30
sI8
F49
sI9
F134
sI10
F37
sI11
F71
sI12
F68
sI13
F69
sI14
F56
sI15
F101
sI16
F114
sa(dp382
I1
F118
sI2
F78
sI3
F81
sI4
F132
sI5
F86
sI6
F60
sI7
F67
sI8
F71
sI9
F106
sI10
F58
sI11
F61
sI12
F78
sI13
F99
sI14
F88
sI15
F94
sI16
F121
sa(dp383
I1
F360
sI2
F144
sI3
F141
sI4
F242
sI5
F168
sI6
F83
sI7
F76
sI8
F118
sI9
F202
sI10
F91
sI11
F121
sI12
F91
sI13
F157
sI14
F127
sI15
F167
sI16
F231
sa(dp384
I1
F84
sI2
F38
sI3
F41
sI4
F56
sI5
F42
sI6
F20
sI7
F33
sI8
F28
sI9
F45
sI10
F30
sI11
F29
sI12
F48
sI13
F48
sI14
F35
sI15
F49
sI16
F57
sa(dp385
I1
F43
sI2
F49
sI3
F46
sI4
F53
sI5
F56
sI6
F46
sI7
F53
sI8
F73
sI9
F44
sI10
F59
sI11
F45
sI12
F51
sI13
F48
sI14
F74
sI15
F55
sI16
F83
sa(dp386
I1
F106
sI2
F53
sI3
F82
sI4
F94
sI5
F59
sI6
F32
sI7
F24
sI8
F35
sI9
F95
sI10
F26
sI11
F56
sI12
F60
sI13
F75
sI14
F39
sI15
F75
sI16
F76
sa(dp387
I1
F139
sI2
F76
sI3
F85
sI4
F105
sI5
F86
sI6
F37
sI7
F47
sI8
F36
sI9
F95
sI10
F47
sI11
F64
sI12
F59
sI13
F85
sI14
F46
sI15
F69
sI16
F91
sa(dp388
I1
F89
sI2
F74
sI3
F68
sI4
F80
sI5
F83
sI6
F61
sI7
F52
sI8
F55
sI9
F79
sI10
F50
sI11
F43
sI12
F56
sI13
F60
sI14
F66
sI15
F65
sI16
F62
sa(dp389
I1
F35
sI2
F34
sI3
F38
sI4
F36
sI5
F48
sI6
F33
sI7
F21
sI8
F39
sI9
F35
sI10
F32
sI11
F44
sI12
F45
sI13
F24
sI14
F42
sI15
F53
sI16
F50
sa(dp390
I1
F82
sI2
F48
sI3
F60
sI4
F50
sI5
F58
sI6
F33
sI7
F28
sI8
F36
sI9
F70
sI10
F42
sI11
F51
sI12
F40
sI13
F30
sI14
F32
sI15
F64
sI16
F42
sa(dp391
I1
F66
sI2
F49
sI3
F70
sI4
F67
sI5
F55
sI6
F51
sI7
F43
sI8
F80
sI9
F67
sI10
F67
sI11
F84
sI12
F77
sI13
F64
sI14
F62
sI15
F98
sI16
F99
sa(dp392
I1
F70
sI2
F56
sI3
F54
sI4
F83
sI5
F61
sI6
F66
sI7
F41
sI8
F72
sI9
F58
sI10
F46
sI11
F54
sI12
F57
sI13
F73
sI14
F72
sI15
F67
sI16
F122
sa(dp393
I1
F37
sI2
F38
sI3
F39
sI4
F47
sI5
F62
sI6
F40
sI7
F31
sI8
F39
sI9
F37
sI10
F39
sI11
F23
sI12
F38
sI13
F24
sI14
F55
sI15
F45
sI16
F54
sa(dp394
I1
F89
sI2
F59
sI3
F56
sI4
F84
sI5
F71
sI6
F50
sI7
F30
sI8
F67
sI9
F72
sI10
F56
sI11
F44
sI12
F46
sI13
F56
sI14
F53
sI15
F88
sI16
F111
sa(dp395
I1
F113
sI2
F76
sI3
F84
sI4
F81
sI5
F84
sI6
F72
sI7
F44
sI8
F62
sI9
F92
sI10
F44
sI11
F67
sI12
F82
sI13
F65
sI14
F70
sI15
F90
sI16
F115
sa(dp396
I1
F50
sI2
F29
sI3
F42
sI4
F29
sI5
F31
sI6
F18
sI7
F34
sI8
F25
sI9
F35
sI10
F38
sI11
F29
sI12
F26
sI13
F34
sI14
F23
sI15
F23
sI16
F25
sa(dp397
I1
F43
sI2
F55
sI3
F39
sI4
F29
sI5
F57
sI6
F49
sI7
F34
sI8
F31
sI9
F42
sI10
F31
sI11
F31
sI12
F25
sI13
F24
sI14
F36
sI15
F25
sI16
F26
sa(dp398
I1
F57
sI2
F29
sI3
F39
sI4
F47
sI5
F42
sI6
F32
sI7
F14
sI8
F29
sI9
F36
sI10
F23
sI11
F28
sI12
F33
sI13
F37
sI14
F33
sI15
F39
sI16
F47
sa(dp399
I1
F103
sI2
F61
sI3
F85
sI4
F78
sI5
F70
sI6
F41
sI7
F42
sI8
F67
sI9
F91
sI10
F68
sI11
F90
sI12
F63
sI13
F62
sI14
F50
sI15
F95
sI16
F92
sa(dp400
I1
F34
sI2
F38
sI3
F25
sI4
F27
sI5
F40
sI6
F24
sI7
F25
sI8
F20
sI9
F35
sI10
F21
sI11
F7
sI12
F8
sI13
F15
sI14
F26
sI15
F14
sI16
F8
sa(dp401
I1
F12
sI2
F95
sI3
F2
sI4
F25
sI5
F88
sI6
F91
sI7
F5
sI8
F33
sI9
F2
sI10
F6
sI11
F1
sI12
F11
sI13
F32
sI14
F25
sI15
F12
sI16
F13
sa(dp402
I1
F120
sI2
F62
sI3
F74
sI4
F102
sI5
F68
sI6
F38
sI7
F22
sI8
F50
sI9
F81
sI10
F35
sI11
F40
sI12
F49
sI13
F89
sI14
F43
sI15
F69
sI16
F75
sa(dp403
I1
F90
sI2
F51
sI3
F56
sI4
F68
sI5
F66
sI6
F62
sI7
F37
sI8
F50
sI9
F68
sI10
F48
sI11
F68
sI12
F67
sI13
F41
sI14
F54
sI15
F90
sI16
F68
sa(dp404
I1
F57
sI2
F28
sI3
F36
sI4
F28
sI5
F40
sI6
F23
sI7
F13
sI8
F31
sI9
F27
sI10
F43
sI11
F25
sI12
F17
sI13
F25
sI14
F13
sI15
F38
sI16
F44
sa(dp405
I1
F70
sI2
F84
sI3
F66
sI4
F66
sI5
F93
sI6
F69
sI7
F65
sI8
F77
sI9
F73
sI10
F73
sI11
F79
sI12
F67
sI13
F50
sI14
F78
sI15
F82
sI16
F69
sa(dp406
I1
F120
sI2
F80
sI3
F80
sI4
F108
sI5
F114
sI6
F74
sI7
F47
sI8
F63
sI9
F89
sI10
F56
sI11
F69
sI12
F73
sI13
F65
sI14
F88
sI15
F91
sI16
F83
sa(dp407
I1
F176
sI2
F107
sI3
F138
sI4
F105
sI5
F129
sI6
F76
sI7
F76
sI8
F65
sI9
F156
sI10
F81
sI11
F102
sI12
F82
sI13
F65
sI14
F82
sI15
F105
sI16
F101
sa(dp408
I1
F31
sI2
F17
sI3
F55
sI4
F38
sI5
F25
sI6
F17
sI7
F19
sI8
F57
sI9
F66
sI10
F15
sI11
F21
sI12
F23
sI13
F18
sI14
F69
sI15
F31
sI16
F99
sa(dp409
I1
F110
sI2
F54
sI3
F71
sI4
F81
sI5
F67
sI6
F54
sI7
F32
sI8
F52
sI9
F80
sI10
F40
sI11
F68
sI12
F82
sI13
F58
sI14
F57
sI15
F100
sI16
F85
sa(dp410
I1
F124
sI2
F52
sI3
F75
sI4
F66
sI5
F58
sI6
F35
sI7
F33
sI8
F33
sI9
F92
sI10
F42
sI11
F42
sI12
F34
sI13
F43
sI14
F30
sI15
F60
sI16
F47
sa(dp411
I1
F66
sI2
F35
sI3
F34
sI4
F46
sI5
F54
sI6
F19
sI7
F11
sI8
F35
sI9
F25
sI10
F36
sI11
F11
sI12
F14
sI13
F36
sI14
F29
sI15
F30
sI16
F19
sa(dp412
I1
F98
sI2
F68
sI3
F75
sI4
F62
sI5
F84
sI6
F61
sI7
F46
sI8
F71
sI9
F82
sI10
F44
sI11
F67
sI12
F77
sI13
F39
sI14
F89
sI15
F82
sI16
F66
sa(dp413
I1
F49
sI2
F26
sI3
F29
sI4
F37
sI5
F31
sI6
F27
sI7
F16
sI8
F28
sI9
F34
sI10
F29
sI11
F19
sI12
F20
sI13
F27
sI14
F20
sI15
F38
sI16
F38
sa(dp414
I1
F27
sI2
F40
sI3
F27
sI4
F38
sI5
F49
sI6
F38
sI7
F25
sI8
F28
sI9
F26
sI10
F33
sI11
F17
sI12
F26
sI13
F30
sI14
F29
sI15
F33
sI16
F31
sa(dp415
I1
F173
sI2
F83
sI3
F92
sI4
F98
sI5
F91
sI6
F48
sI7
F42
sI8
F73
sI9
F108
sI10
F56
sI11
F34
sI12
F45
sI13
F73
sI14
F67
sI15
F76
sI16
F82
sa(dp416
I1
F56
sI2
F49
sI3
F49
sI4
F36
sI5
F55
sI6
F30
sI7
F32
sI8
F30
sI9
F56
sI10
F29
sI11
F38
sI12
F40
sI13
F23
sI14
F39
sI15
F44
sI16
F39
sa(dp417
I1
F122
sI2
F61
sI3
F94
sI4
F108
sI5
F87
sI6
F39
sI7
F37
sI8
F60
sI9
F91
sI10
F58
sI11
F58
sI12
F72
sI13
F85
sI14
F65
sI15
F90
sI16
F108
sa(dp418
I1
F77
sI2
F64
sI3
F48
sI4
F71
sI5
F66
sI6
F48
sI7
F29
sI8
F76
sI9
F60
sI10
F41
sI11
F58
sI12
F66
sI13
F57
sI14
F66
sI15
F90
sI16
F79
sa(dp419
I1
F179
sI2
F98
sI3
F140
sI4
F85
sI5
F120
sI6
F92
sI7
F43
sI8
F83
sI9
F137
sI10
F65
sI11
F82
sI12
F108
sI13
F65
sI14
F83
sI15
F128
sI16
F138
sa(dp420
I1
F91
sI2
F80
sI3
F72
sI4
F65
sI5
F77
sI6
F47
sI7
F49
sI8
F56
sI9
F76
sI10
F58
sI11
F72
sI12
F56
sI13
F64
sI14
F44
sI15
F69
sI16
F44
sa(dp421
I1
F43
sI2
F63
sI3
F40
sI4
F44
sI5
F61
sI6
F42
sI7
F48
sI8
F45
sI9
F52
sI10
F60
sI11
F43
sI12
F44
sI13
F34
sI14
F31
sI15
F68
sI16
F42
sa(dp422
I1
F30
sI2
F17
sI3
F15
sI4
F22
sI5
F21
sI6
F26
sI7
F11
sI8
F27
sI9
F19
sI10
F11
sI11
F9
sI12
F17
sI13
F13
sI14
F31
sI15
F22
sI16
F32
sa(dp423
I1
F99
sI2
F64
sI3
F52
sI4
F72
sI5
F72
sI6
F31
sI7
F25
sI8
F57
sI9
F58
sI10
F35
sI11
F34
sI12
F39
sI13
F57
sI14
F55
sI15
F56
sI16
F75
sa(dp424
I1
F297
sI2
F134
sI3
F209
sI4
F204
sI5
F180
sI6
F101
sI7
F98
sI8
F140
sI9
F212
sI10
F115
sI11
F124
sI12
F129
sI13
F155
sI14
F169
sI15
F149
sI16
F171
sa(dp425
I1
F43
sI2
F29
sI3
F28
sI4
F34
sI5
F28
sI6
F19
sI7
F22
sI8
F22
sI9
F33
sI10
F23
sI11
F32
sI12
F23
sI13
F29
sI14
F20
sI15
F30
sI16
F35
sa(dp426
I1
F173
sI2
F86
sI3
F97
sI4
F155
sI5
F99
sI6
F50
sI7
F46
sI8
F86
sI9
F132
sI10
F63
sI11
F68
sI12
F57
sI13
F106
sI14
F82
sI15
F110
sI16
F150
sa(dp427
I1
F130
sI2
F71
sI3
F96
sI4
F134
sI5
F95
sI6
F68
sI7
F61
sI8
F92
sI9
F101
sI10
F91
sI11
F83
sI12
F81
sI13
F105
sI14
F86
sI15
F116
sI16
F191
sa(dp428
I1
F35
sI2
F28
sI3
F26
sI4
F33
sI5
F23
sI6
F23
sI7
F19
sI8
F33
sI9
F34
sI10
F18
sI11
F13
sI12
F22
sI13
F30
sI14
F29
sI15
F29
sI16
F37
sa(dp429
I1
F92
sI2
F93
sI3
F71
sI4
F79
sI5
F102
sI6
F64
sI7
F55
sI8
F69
sI9
F83
sI10
F66
sI11
F60
sI12
F54
sI13
F58
sI14
F67
sI15
F77
sI16
F74
sa(dp430
I1
F81
sI2
F70
sI3
F66
sI4
F41
sI5
F80
sI6
F63
sI7
F41
sI8
F48
sI9
F59
sI10
F56
sI11
F30
sI12
F37
sI13
F38
sI14
F43
sI15
F45
sI16
F56
sa(dp431
I1
F82
sI2
F57
sI3
F60
sI4
F94
sI5
F83
sI6
F59
sI7
F39
sI8
F64
sI9
F63
sI10
F51
sI11
F52
sI12
F73
sI13
F65
sI14
F78
sI15
F88
sI16
F106
sa(dp432
I1
F96
sI2
F53
sI3
F94
sI4
F43
sI5
F59
sI6
F24
sI7
F47
sI8
F47
sI9
F90
sI10
F62
sI11
F67
sI12
F43
sI13
F41
sI14
F38
sI15
F54
sI16
F38
sa(dp433
I1
F33
sI2
F21
sI3
F30
sI4
F34
sI5
F39
sI6
F31
sI7
F22
sI8
F29
sI9
F25
sI10
F34
sI11
F23
sI12
F28
sI13
F20
sI14
F35
sI15
F36
sI16
F22
sa(dp434
I1
F111
sI2
F45
sI3
F55
sI4
F57
sI5
F46
sI6
F22
sI7
F28
sI8
F23
sI9
F77
sI10
F24
sI11
F28
sI12
F22
sI13
F34
sI14
F28
sI15
F40
sI16
F20
sa(dp435
I1
F102
sI2
F87
sI3
F122
sI4
F56
sI5
F93
sI6
F74
sI7
F62
sI8
F62
sI9
F138
sI10
F63
sI11
F90
sI12
F46
sI13
F34
sI14
F67
sI15
F63
sI16
F73
sa(dp436
I1
F66
sI2
F31
sI3
F46
sI4
F77
sI5
F43
sI6
F18
sI7
F24
sI8
F30
sI9
F60
sI10
F25
sI11
F32
sI12
F37
sI13
F51
sI14
F41
sI15
F52
sI16
F62
sa(dp437
I1
F64
sI2
F29
sI3
F51
sI4
F39
sI5
F38
sI6
F25
sI7
F16
sI8
F35
sI9
F53
sI10
F32
sI11
F39
sI12
F29
sI13
F27
sI14
F28
sI15
F48
sI16
F48
sa(dp438
I1
F67
sI2
F39
sI3
F60
sI4
F37
sI5
F58
sI6
F36
sI7
F34
sI8
F39
sI9
F46
sI10
F49
sI11
F42
sI12
F42
sI13
F32
sI14
F43
sI15
F43
sI16
F37
sa(dp439
I1
F252
sI2
F93
sI3
F106
sI4
F130
sI5
F100
sI6
F39
sI7
F39
sI8
F58
sI9
F136
sI10
F34
sI11
F64
sI12
F69
sI13
F93
sI14
F70
sI15
F94
sI16
F136
sa(dp440
I1
F69
sI2
F27
sI3
F49
sI4
F40
sI5
F45
sI6
F30
sI7
F24
sI8
F32
sI9
F48
sI10
F39
sI11
F42
sI12
F27
sI13
F22
sI14
F35
sI15
F42
sI16
F36
sa(dp441
I1
F58
sI2
F65
sI3
F63
sI4
F51
sI5
F72
sI6
F50
sI7
F55
sI8
F52
sI9
F69
sI10
F74
sI11
F100
sI12
F72
sI13
F38
sI14
F40
sI15
F97
sI16
F28
sa(dp442
I1
F90
sI2
F72
sI3
F82
sI4
F84
sI5
F103
sI6
F58
sI7
F46
sI8
F55
sI9
F85
sI10
F60
sI11
F42
sI12
F48
sI13
F50
sI14
F72
sI15
F65
sI16
F82
sa(dp443
I1
F40
sI2
F33
sI3
F43
sI4
F22
sI5
F34
sI6
F35
sI7
F32
sI8
F27
sI9
F44
sI10
F30
sI11
F28
sI12
F31
sI13
F20
sI14
F30
sI15
F30
sI16
F21
sa(dp444
I1
F192
sI2
F211
sI3
F193
sI4
F135
sI5
F209
sI6
F108
sI7
F72
sI8
F175
sI9
F173
sI10
F145
sI11
F102
sI12
F109
sI13
F156
sI14
F100
sI15
F163
sI16
F96
sa(dp445
I1
F398
sI2
F188
sI3
F186
sI4
F260
sI5
F248
sI6
F138
sI7
F90
sI8
F165
sI9
F196
sI10
F117
sI11
F119
sI12
F130
sI13
F189
sI14
F198
sI15
F168
sI16
F240
sa(dp446
I1
F450
sI2
F255
sI3
F200
sI4
F265
sI5
F274
sI6
F203
sI7
F146
sI8
F190
sI9
F275
sI10
F149
sI11
F169
sI12
F138
sI13
F171
sI14
F206
sI15
F216
sI16
F201
sa(dp447
I1
F163
sI2
F111
sI3
F86
sI4
F133
sI5
F148
sI6
F84
sI7
F54
sI8
F83
sI9
F94
sI10
F52
sI11
F60
sI12
F81
sI13
F87
sI14
F122
sI15
F88
sI16
F111
sa(dp448
I1
F74
sI2
F48
sI3
F52
sI4
F56
sI5
F47
sI6
F25
sI7
F28
sI8
F30
sI9
F59
sI10
F32
sI11
F41
sI12
F42
sI13
F50
sI14
F25
sI15
F53
sI16
F63
sa(dp449
I1
F69
sI2
F31
sI3
F43
sI4
F51
sI5
F41
sI6
F13
sI7
F26
sI8
F21
sI9
F40
sI10
F25
sI11
F48
sI12
F39
sI13
F44
sI14
F32
sI15
F35
sI16
F31
sa(dp450
I1
F40
sI2
F32
sI3
F24
sI4
F20
sI5
F29
sI6
F17
sI7
F19
sI8
F30
sI9
F23
sI10
F25
sI11
F17
sI12
F20
sI13
F24
sI14
F21
sI15
F25
sI16
F31
sa(dp451
I1
F211
sI2
F97
sI3
F110
sI4
F155
sI5
F113
sI6
F61
sI7
F37
sI8
F102
sI9
F130
sI10
F64
sI11
F82
sI12
F92
sI13
F119
sI14
F91
sI15
F139
sI16
F226
sa(dp452
I1
F134
sI2
F74
sI3
F81
sI4
F163
sI5
F98
sI6
F57
sI7
F54
sI8
F69
sI9
F108
sI10
F66
sI11
F63
sI12
F86
sI13
F112
sI14
F81
sI15
F125
sI16
F174
sa(dp453
I1
F157
sI2
F127
sI3
F170
sI4
F134
sI5
F143
sI6
F74
sI7
F78
sI8
F128
sI9
F167
sI10
F132
sI11
F130
sI12
F107
sI13
F120
sI14
F90
sI15
F159
sI16
F143
sa(dp454
I1
F124
sI2
F59
sI3
F81
sI4
F110
sI5
F92
sI6
F42
sI7
F38
sI8
F61
sI9
F81
sI10
F60
sI11
F51
sI12
F68
sI13
F77
sI14
F72
sI15
F90
sI16
F94
sa(dp455
I1
F127
sI2
F51
sI3
F62
sI4
F89
sI5
F72
sI6
F28
sI7
F18
sI8
F33
sI9
F71
sI10
F29
sI11
F34
sI12
F33
sI13
F59
sI14
F43
sI15
F53
sI16
F76
sa(dp456
I1
F134
sI2
F73
sI3
F81
sI4
F128
sI5
F95
sI6
F59
sI7
F38
sI8
F94
sI9
F85
sI10
F64
sI11
F120
sI12
F108
sI13
F102
sI14
F90
sI15
F138
sI16
F204
sa(dp457
I1
F33
sI2
F8
sI3
F19
sI4
F19
sI5
F9
sI6
F11
sI7
F15
sI8
F28
sI9
F26
sI10
F23
sI11
F22
sI12
F22
sI13
F11
sI14
F21
sI15
F37
sI16
F22
sa(dp458
I1
F124
sI2
F74
sI3
F88
sI4
F134
sI5
F106
sI6
F80
sI7
F45
sI8
F103
sI9
F83
sI10
F68
sI11
F106
sI12
F125
sI13
F107
sI14
F112
sI15
F143
sI16
F198
sa(dp459
I1
F36
sI2
F14
sI3
F35
sI4
F20
sI5
F25
sI6
F14
sI7
F9
sI8
F10
sI9
F32
sI10
F16
sI11
F23
sI12
F13
sI13
F11
sI14
F14
sI15
F18
sI16
F18
sa(dp460
I1
F28
sI2
F22
sI3
F14
sI4
F20
sI5
F22
sI6
F21
sI7
F35
sI8
F28
sI9
F16
sI10
F36
sI11
F30
sI12
F30
sI13
F18
sI14
F27
sI15
F33
sI16
F29
sa(dp461
I1
F91
sI2
F76
sI3
F55
sI4
F63
sI5
F69
sI6
F59
sI7
F34
sI8
F54
sI9
F69
sI10
F33
sI11
F46
sI12
F63
sI13
F56
sI14
F48
sI15
F76
sI16
F78
sa(dp462
I1
F46
sI2
F41
sI3
F32
sI4
F26
sI5
F38
sI6
F41
sI7
F39
sI8
F38
sI9
F37
sI10
F46
sI11
F34
sI12
F31
sI13
F23
sI14
F28
sI15
F44
sI16
F42
sa(dp463
I1
F115
sI2
F62
sI3
F79
sI4
F80
sI5
F83
sI6
F68
sI7
F47
sI8
F70
sI9
F96
sI10
F63
sI11
F53
sI12
F42
sI13
F42
sI14
F75
sI15
F75
sI16
F76
sa(dp464
I1
F76
sI2
F57
sI3
F89
sI4
F74
sI5
F71
sI6
F35
sI7
F59
sI8
F65
sI9
F91
sI10
F70
sI11
F66
sI12
F50
sI13
F57
sI14
F68
sI15
F64
sI16
F54
sa(dp465
I1
F111
sI2
F80
sI3
F78
sI4
F83
sI5
F98
sI6
F69
sI7
F49
sI8
F62
sI9
F75
sI10
F68
sI11
F55
sI12
F63
sI13
F68
sI14
F61
sI15
F79
sI16
F65
sa(dp466
I1
F93
sI2
F52
sI3
F45
sI4
F77
sI5
F62
sI6
F50
sI7
F39
sI8
F54
sI9
F56
sI10
F51
sI11
F26
sI12
F36
sI13
F56
sI14
F52
sI15
F59
sI16
F76
sa(dp467
I1
F194
sI2
F148
sI3
F99
sI4
F117
sI5
F178
sI6
F125
sI7
F78
sI8
F145
sI9
F89
sI10
F106
sI11
F80
sI12
F74
sI13
F97
sI14
F147
sI15
F92
sI16
F142
sa(dp468
I1
F124
sI2
F74
sI3
F88
sI4
F134
sI5
F106
sI6
F80
sI7
F45
sI8
F103
sI9
F83
sI10
F68
sI11
F106
sI12
F125
sI13
F107
sI14
F112
sI15
F143
sI16
F198
sa(dp469
I1
F129
sI2
F91
sI3
F66
sI4
F79
sI5
F80
sI6
F63
sI7
F57
sI8
F69
sI9
F99
sI10
F42
sI11
F46
sI12
F49
sI13
F56
sI14
F73
sI15
F68
sI16
F103
sa(dp470
I1
F61
sI2
F28
sI3
F37
sI4
F20
sI5
F41
sI6
F21
sI7
F12
sI8
F31
sI9
F26
sI10
F30
sI11
F21
sI12
F27
sI13
F18
sI14
F26
sI15
F34
sI16
F32
sa(dp471
I1
F69
sI2
F36
sI3
F49
sI4
F39
sI5
F41
sI6
F32
sI7
F30
sI8
F24
sI9
F58
sI10
F29
sI11
F23
sI12
F18
sI13
F25
sI14
F30
sI15
F26
sI16
F19
sa(dp472
I1
F211
sI2
F116
sI3
F126
sI4
F181
sI5
F135
sI6
F91
sI7
F59
sI8
F99
sI9
F152
sI10
F81
sI11
F87
sI12
F94
sI13
F136
sI14
F96
sI15
F142
sI16
F197
sa(dp473
I1
F83
sI2
F49
sI3
F53
sI4
F50
sI5
F73
sI6
F40
sI7
F25
sI8
F41
sI9
F37
sI10
F42
sI11
F23
sI12
F27
sI13
F41
sI14
F48
sI15
F29
sI16
F34
sa(dp474
I1
F118
sI2
F84
sI3
F69
sI4
F91
sI5
F91
sI6
F68
sI7
F60
sI8
F80
sI9
F97
sI10
F77
sI11
F92
sI12
F62
sI13
F56
sI14
F70
sI15
F107
sI16
F84
sa(dp475
I1
F129
sI2
F100
sI3
F108
sI4
F99
sI5
F109
sI6
F66
sI7
F76
sI8
F84
sI9
F137
sI10
F92
sI11
F115
sI12
F96
sI13
F61
sI14
F77
sI15
F141
sI16
F123
sa(dp476
I1
F76
sI2
F32
sI3
F52
sI4
F62
sI5
F44
sI6
F17
sI7
F28
sI8
F30
sI9
F59
sI10
F33
sI11
F58
sI12
F47
sI13
F43
sI14
F37
sI15
F59
sI16
F48
sa(dp477
I1
F27
sI2
F44
sI3
F40
sI4
F32
sI5
F46
sI6
F37
sI7
F45
sI8
F54
sI9
F41
sI10
F42
sI11
F35
sI12
F45
sI13
F29
sI14
F59
sI15
F43
sI16
F44
sa(dp478
I1
F124
sI2
F41
sI3
F68
sI4
F31
sI5
F61
sI6
F51
sI7
F30
sI8
F41
sI9
F50
sI10
F46
sI11
F40
sI12
F34
sI13
F29
sI14
F45
sI15
F32
sI16
F40
sa(dp479
I1
F104
sI2
F103
sI3
F81
sI4
F110
sI5
F116
sI6
F71
sI7
F72
sI8
F97
sI9
F98
sI10
F77
sI11
F78
sI12
F90
sI13
F80
sI14
F105
sI15
F112
sI16
F133
sa(dp480
I1
F91
sI2
F33
sI3
F44
sI4
F35
sI5
F28
sI6
F21
sI7
F21
sI8
F30
sI9
F55
sI10
F23
sI11
F26
sI12
F17
sI13
F29
sI14
F23
sI15
F30
sI16
F24
sa(dp481
I1
F83
sI2
F49
sI3
F53
sI4
F50
sI5
F73
sI6
F40
sI7
F25
sI8
F41
sI9
F37
sI10
F42
sI11
F23
sI12
F27
sI13
F41
sI14
F48
sI15
F29
sI16
F34
sa(dp482
I1
F63
sI2
F36
sI3
F49
sI4
F45
sI5
F37
sI6
F21
sI7
F35
sI8
F21
sI9
F62
sI10
F35
sI11
F33
sI12
F28
sI13
F30
sI14
F22
sI15
F42
sI16
F36
sa(dp483
I1
F107
sI2
F60
sI3
F76
sI4
F83
sI5
F68
sI6
F32
sI7
F33
sI8
F46
sI9
F89
sI10
F36
sI11
F51
sI12
F55
sI13
F62
sI14
F51
sI15
F71
sI16
F91
sa(dp484
I1
F127
sI2
F83
sI3
F116
sI4
F61
sI5
F111
sI6
F35
sI7
F60
sI8
F58
sI9
F106
sI10
F83
sI11
F66
sI12
F58
sI13
F43
sI14
F63
sI15
F71
sI16
F53
sa(dp485
I1
F56
sI2
F24
sI3
F45
sI4
F59
sI5
F38
sI6
F24
sI7
F16
sI8
F25
sI9
F47
sI10
F23
sI11
F33
sI12
F34
sI13
F42
sI14
F32
sI15
F44
sI16
F41
sa(dp486
I1
F86
sI2
F58
sI3
F57
sI4
F45
sI5
F71
sI6
F49
sI7
F35
sI8
F56
sI9
F58
sI10
F34
sI11
F26
sI12
F27
sI13
F31
sI14
F70
sI15
F27
sI16
F48
sa(dp487
I1
F139
sI2
F78
sI3
F100
sI4
F156
sI5
F123
sI6
F64
sI7
F60
sI8
F97
sI9
F103
sI10
F74
sI11
F109
sI12
F115
sI13
F108
sI14
F128
sI15
F132
sI16
F198
sa(dp488
I1
F9
sI2
F35
sI3
F4
sI4
F36
sI5
F39
sI6
F27
sI7
F10
sI8
F24
sI9
F6
sI10
F13
sI11
F6
sI12
F9
sI13
F30
sI14
F25
sI15
F14
sI16
F21
sa(dp489
I1
F110
sI2
F59
sI3
F82
sI4
F54
sI5
F75
sI6
F55
sI7
F30
sI8
F58
sI9
F85
sI10
F51
sI11
F41
sI12
F41
sI13
F35
sI14
F53
sI15
F65
sI16
F70
sa(dp490
I1
F108
sI2
F58
sI3
F71
sI4
F140
sI5
F87
sI6
F49
sI7
F40
sI8
F77
sI9
F76
sI10
F63
sI11
F68
sI12
F73
sI13
F106
sI14
F83
sI15
F101
sI16
F153
sa(dp491
I1
F68
sI2
F75
sI3
F95
sI4
F38
sI5
F79
sI6
F71
sI7
F76
sI8
F56
sI9
F104
sI10
F68
sI11
F63
sI12
F57
sI13
F24
sI14
F68
sI15
F59
sI16
F22
sa(dp492
I1
F402
sI2
F182
sI3
F236
sI4
F255
sI5
F233
sI6
F126
sI7
F105
sI8
F183
sI9
F236
sI10
F135
sI11
F134
sI12
F143
sI13
F203
sI14
F204
sI15
F174
sI16
F247
sa(dp493
I1
F85
sI2
F33
sI3
F55
sI4
F39
sI5
F44
sI6
F15
sI7
F18
sI8
F14
sI9
F52
sI10
F27
sI11
F29
sI12
F17
sI13
F31
sI14
F16
sI15
F23
sI16
F20
sa(dp494
I1
F355
sI2
F151
sI3
F162
sI4
F233
sI5
F166
sI6
F87
sI7
F70
sI8
F127
sI9
F200
sI10
F77
sI11
F101
sI12
F123
sI13
F180
sI14
F135
sI15
F168
sI16
F202
sa(dp495
I1
F235
sI2
F90
sI3
F104
sI4
F197
sI5
F122
sI6
F56
sI7
F40
sI8
F95
sI9
F138
sI10
F56
sI11
F62
sI12
F82
sI13
F131
sI14
F111
sI15
F132
sI16
F180
sa(dp496
I1
F40
sI2
F21
sI3
F26
sI4
F20
sI5
F20
sI6
F13
sI7
F14
sI8
F18
sI9
F29
sI10
F20
sI11
F15
sI12
F13
sI13
F17
sI14
F11
sI15
F23
sI16
F29
sa(dp497
I1
F295
sI2
F137
sI3
F169
sI4
F236
sI5
F196
sI6
F93
sI7
F64
sI8
F147
sI9
F161
sI10
F102
sI11
F86
sI12
F101
sI13
F185
sI14
F168
sI15
F131
sI16
F201
sa(dp498
I1
F91
sI2
F47
sI3
F82
sI4
F83
sI5
F63
sI6
F25
sI7
F31
sI8
F44
sI9
F88
sI10
F37
sI11
F75
sI12
F66
sI13
F60
sI14
F54
sI15
F79
sI16
F89
sa(dp499
I1
F236
sI2
F103
sI3
F132
sI4
F171
sI5
F115
sI6
F68
sI7
F60
sI8
F84
sI9
F154
sI10
F57
sI11
F89
sI12
F98
sI13
F136
sI14
F99
sI15
F117
sI16
F171
sa(dp500
I1
F171
sI2
F80
sI3
F116
sI4
F141
sI5
F100
sI6
F61
sI7
F42
sI8
F112
sI9
F130
sI10
F83
sI11
F110
sI12
F103
sI13
F106
sI14
F91
sI15
F159
sI16
F209
sa(dp501
I1
F418
sI2
F190
sI3
F230
sI4
F265
sI5
F217
sI6
F111
sI7
F85
sI8
F156
sI9
F243
sI10
F111
sI11
F131
sI12
F146
sI13
F224
sI14
F157
sI15
F186
sI16
F278
sa(dp502
I1
F323
sI2
F138
sI3
F172
sI4
F184
sI5
F176
sI6
F82
sI7
F71
sI8
F129
sI9
F164
sI10
F99
sI11
F98
sI12
F111
sI13
F153
sI14
F139
sI15
F132
sI16
F153
sa(dp503
I1
F55
sI2
F26
sI3
F29
sI4
F37
sI5
F36
sI6
F20
sI7
F14
sI8
F25
sI9
F32
sI10
F26
sI11
F31
sI12
F31
sI13
F23
sI14
F23
sI15
F47
sI16
F45
sa(dp504
I1
F54
sI2
F55
sI3
F33
sI4
F55
sI5
F48
sI6
F26
sI7
F23
sI8
F59
sI9
F44
sI10
F30
sI11
F29
sI12
F50
sI13
F51
sI14
F45
sI15
F68
sI16
F66
sa(dp505
I1
F34
sI2
F9
sI3
F19
sI4
F28
sI5
F20
sI6
F17
sI7
F10
sI8
F32
sI9
F14
sI10
F26
sI11
F11
sI12
F24
sI13
F22
sI14
F27
sI15
F35
sI16
F45
sa(dp506
I1
F217
sI2
F93
sI3
F148
sI4
F188
sI5
F127
sI6
F53
sI7
F71
sI8
F97
sI9
F163
sI10
F94
sI11
F90
sI12
F98
sI13
F139
sI14
F108
sI15
F136
sI16
F210
sa(dp507
I1
F371
sI2
F176
sI3
F201
sI4
F217
sI5
F178
sI6
F114
sI7
F81
sI8
F142
sI9
F249
sI10
F68
sI11
F77
sI12
F98
sI13
F167
sI14
F157
sI15
F133
sI16
F205
sa(dp508
I1
F343
sI2
F153
sI3
F164
sI4
F228
sI5
F159
sI6
F82
sI7
F56
sI8
F118
sI9
F220
sI10
F86
sI11
F104
sI12
F64
sI13
F165
sI14
F94
sI15
F151
sI16
F185
sa(dp509
I1
F112
sI2
F74
sI3
F65
sI4
F166
sI5
F109
sI6
F70
sI7
F38
sI8
F102
sI9
F73
sI10
F80
sI11
F76
sI12
F79
sI13
F123
sI14
F95
sI15
F129
sI16
F216
sa(dp510
I1
F80
sI2
F26
sI3
F39
sI4
F47
sI5
F35
sI6
F28
sI7
F17
sI8
F30
sI9
F37
sI10
F24
sI11
F21
sI12
F29
sI13
F40
sI14
F32
sI15
F34
sI16
F34
sa(dp511
I1
F253
sI2
F104
sI3
F134
sI4
F146
sI5
F124
sI6
F57
sI7
F50
sI8
F74
sI9
F153
sI10
F57
sI11
F61
sI12
F64
sI13
F107
sI14
F87
sI15
F90
sI16
F135
sa(dp512
I1
F309
sI2
F92
sI3
F139
sI4
F177
sI5
F121
sI6
F71
sI7
F46
sI8
F95
sI9
F154
sI10
F60
sI11
F87
sI12
F107
sI13
F133
sI14
F110
sI15
F136
sI16
F160
sa(dp513
I1
F178
sI2
F78
sI3
F87
sI4
F131
sI5
F92
sI6
F33
sI7
F45
sI8
F50
sI9
F101
sI10
F45
sI11
F52
sI12
F69
sI13
F102
sI14
F64
sI15
F84
sI16
F89
sa(dp514
I1
F336
sI2
F142
sI3
F207
sI4
F269
sI5
F161
sI6
F92
sI7
F80
sI8
F124
sI9
F225
sI10
F93
sI11
F133
sI12
F134
sI13
F232
sI14
F130
sI15
F165
sI16
F271
sa(dp515
I1
F275
sI2
F143
sI3
F123
sI4
F207
sI5
F166
sI6
F112
sI7
F66
sI8
F107
sI9
F142
sI10
F80
sI11
F86
sI12
F85
sI13
F164
sI14
F116
sI15
F119
sI16
F153
sa(dp516
I1
F214
sI2
F114
sI3
F82
sI4
F102
sI5
F117
sI6
F46
sI7
F40
sI8
F59
sI9
F104
sI10
F43
sI11
F46
sI12
F33
sI13
F77
sI14
F59
sI15
F58
sI16
F80
sa(dp517
I1
F152
sI2
F74
sI3
F82
sI4
F87
sI5
F92
sI6
F45
sI7
F32
sI8
F60
sI9
F80
sI10
F49
sI11
F49
sI12
F53
sI13
F70
sI14
F61
sI15
F69
sI16
F74
sa(dp518
I1
F45
sI2
F24
sI3
F34
sI4
F39
sI5
F33
sI6
F9
sI7
F10
sI8
F31
sI9
F35
sI10
F17
sI11
F41
sI12
F32
sI13
F29
sI14
F33
sI15
F40
sI16
F48
sa(dp519
I1
F150
sI2
F70
sI3
F96
sI4
F117
sI5
F82
sI6
F60
sI7
F33
sI8
F62
sI9
F112
sI10
F44
sI11
F74
sI12
F76
sI13
F89
sI14
F63
sI15
F103
sI16
F125
sa(dp520
I1
F263
sI2
F132
sI3
F141
sI4
F184
sI5
F154
sI6
F99
sI7
F64
sI8
F122
sI9
F161
sI10
F83
sI11
F114
sI12
F130
sI13
F142
sI14
F125
sI15
F169
sI16
F218
sa(dp521
I1
F37
sI2
F22
sI3
F18
sI4
F29
sI5
F24
sI6
F14
sI7
F9
sI8
F17
sI9
F20
sI10
F10
sI11
F12
sI12
F10
sI13
F24
sI14
F18
sI15
F14
sI16
F25
sa(dp522
I1
F272
sI2
F122
sI3
F140
sI4
F217
sI5
F181
sI6
F102
sI7
F75
sI8
F132
sI9
F142
sI10
F84
sI11
F75
sI12
F122
sI13
F156
sI14
F182
sI15
F133
sI16
F198
sa(dp523
I1
F109
sI2
F54
sI3
F55
sI4
F71
sI5
F67
sI6
F39
sI7
F19
sI8
F49
sI9
F61
sI10
F25
sI11
F40
sI12
F42
sI13
F52
sI14
F56
sI15
F54
sI16
F70
sa(dp524
I1
F222
sI2
F78
sI3
F125
sI4
F124
sI5
F87
sI6
F36
sI7
F38
sI8
F45
sI9
F155
sI10
F45
sI11
F78
sI12
F57
sI13
F85
sI14
F47
sI15
F94
sI16
F114
sa(dp525
I1
F97
sI2
F49
sI3
F51
sI4
F64
sI5
F53
sI6
F30
sI7
F32
sI8
F45
sI9
F65
sI10
F38
sI11
F44
sI12
F41
sI13
F46
sI14
F43
sI15
F61
sI16
F75
sa(dp526
I1
F135
sI2
F80
sI3
F103
sI4
F141
sI5
F101
sI6
F59
sI7
F53
sI8
F89
sI9
F85
sI10
F69
sI11
F110
sI12
F128
sI13
F138
sI14
F94
sI15
F126
sI16
F199
sa(dp527
I1
F231
sI2
F132
sI3
F116
sI4
F198
sI5
F142
sI6
F80
sI7
F72
sI8
F131
sI9
F152
sI10
F97
sI11
F114
sI12
F110
sI13
F151
sI14
F116
sI15
F171
sI16
F243
sa(dp528
I1
F170
sI2
F109
sI3
F77
sI4
F146
sI5
F118
sI6
F63
sI7
F46
sI8
F68
sI9
F92
sI10
F47
sI11
F44
sI12
F56
sI13
F121
sI14
F76
sI15
F73
sI16
F151
sa(dp529
I1
F325
sI2
F175
sI3
F166
sI4
F276
sI5
F204
sI6
F110
sI7
F100
sI8
F183
sI9
F191
sI10
F133
sI11
F121
sI12
F144
sI13
F222
sI14
F179
sI15
F202
sI16
F311
sa(dp530
I1
F64
sI2
F95
sI3
F38
sI4
F78
sI5
F95
sI6
F52
sI7
F17
sI8
F106
sI9
F35
sI10
F22
sI11
F25
sI12
F36
sI13
F81
sI14
F101
sI15
F38
sI16
F87
sa(dp531
I1
F297
sI2
F181
sI3
F168
sI4
F286
sI5
F194
sI6
F111
sI7
F78
sI8
F181
sI9
F180
sI10
F115
sI11
F119
sI12
F145
sI13
F261
sI14
F157
sI15
F194
sI16
F372
sa(dp532
I1
F440
sI2
F224
sI3
F252
sI4
F316
sI5
F297
sI6
F168
sI7
F100
sI8
F202
sI9
F260
sI10
F159
sI11
F144
sI12
F153
sI13
F235
sI14
F216
sI15
F220
sI16
F305
sa(dp533
I1
F323
sI2
F116
sI3
F176
sI4
F200
sI5
F127
sI6
F75
sI7
F75
sI8
F122
sI9
F210
sI10
F101
sI11
F98
sI12
F118
sI13
F155
sI14
F107
sI15
F178
sI16
F214
sa(dp534
I1
F47
sI2
F18
sI3
F16
sI4
F26
sI5
F22
sI6
F13
sI7
F7
sI8
F17
sI9
F15
sI10
F11
sI11
F9
sI12
F11
sI13
F23
sI14
F17
sI15
F14
sI16
F31
sa(dp535
I1
F127
sI2
F52
sI3
F110
sI4
F69
sI5
F49
sI6
F21
sI7
F30
sI8
F37
sI9
F125
sI10
F37
sI11
F59
sI12
F42
sI13
F57
sI14
F27
sI15
F64
sI16
F40
sa(dp536
I1
F204
sI2
F106
sI3
F118
sI4
F180
sI5
F138
sI6
F60
sI7
F56
sI8
F122
sI9
F115
sI10
F94
sI11
F105
sI12
F132
sI13
F150
sI14
F116
sI15
F168
sI16
F236
sa(dp537
I1
F61
sI2
F40
sI3
F53
sI4
F64
sI5
F52
sI6
F32
sI7
F19
sI8
F39
sI9
F63
sI10
F32
sI11
F45
sI12
F37
sI13
F42
sI14
F38
sI15
F60
sI16
F62
sa(dp538
I1
F128
sI2
F72
sI3
F81
sI4
F123
sI5
F79
sI6
F45
sI7
F33
sI8
F67
sI9
F104
sI10
F35
sI11
F55
sI12
F58
sI13
F93
sI14
F72
sI15
F83
sI16
F101
sa(dp539
I1
F77
sI2
F58
sI3
F60
sI4
F70
sI5
F65
sI6
F38
sI7
F22
sI8
F39
sI9
F62
sI10
F33
sI11
F35
sI12
F31
sI13
F61
sI14
F35
sI15
F44
sI16
F65
sa(dp540
I1
F117
sI2
F76
sI3
F85
sI4
F130
sI5
F80
sI6
F52
sI7
F56
sI8
F107
sI9
F105
sI10
F66
sI11
F99
sI12
F122
sI13
F106
sI14
F101
sI15
F152
sI16
F227
sa(dp541
I1
F42
sI2
F17
sI3
F22
sI4
F26
sI5
F18
sI6
F7
sI7
F5
sI8
F18
sI9
F27
sI10
F12
sI11
F7
sI12
F13
sI13
F19
sI14
F12
sI15
F26
sI16
F23
sa(dp542
I1
F182
sI2
F79
sI3
F87
sI4
F154
sI5
F105
sI6
F54
sI7
F41
sI8
F75
sI9
F115
sI10
F52
sI11
F62
sI12
F74
sI13
F100
sI14
F90
sI15
F113
sI16
F168
sa(dp543
I1
F262
sI2
F149
sI3
F131
sI4
F185
sI5
F171
sI6
F64
sI7
F58
sI8
F100
sI9
F141
sI10
F72
sI11
F71
sI12
F79
sI13
F153
sI14
F108
sI15
F103
sI16
F156
sa(dp544
I1
F177
sI2
F106
sI3
F97
sI4
F149
sI5
F128
sI6
F80
sI7
F57
sI8
F80
sI9
F110
sI10
F69
sI11
F95
sI12
F105
sI13
F114
sI14
F90
sI15
F130
sI16
F153
sa(dp545
I1
F117
sI2
F78
sI3
F83
sI4
F133
sI5
F95
sI6
F66
sI7
F50
sI8
F101
sI9
F101
sI10
F60
sI11
F108
sI12
F126
sI13
F97
sI14
F108
sI15
F155
sI16
F188
sa(dp546
I1
F97
sI2
F23
sI3
F42
sI4
F56
sI5
F28
sI6
F18
sI7
F15
sI8
F28
sI9
F56
sI10
F17
sI11
F25
sI12
F30
sI13
F36
sI14
F31
sI15
F46
sI16
F61
sa(dp547
I1
F189
sI2
F86
sI3
F111
sI4
F166
sI5
F106
sI6
F51
sI7
F58
sI8
F88
sI9
F136
sI10
F64
sI11
F96
sI12
F83
sI13
F121
sI14
F102
sI15
F114
sI16
F142
sa(dp548
I1
F171
sI2
F63
sI3
F87
sI4
F118
sI5
F83
sI6
F25
sI7
F26
sI8
F44
sI9
F93
sI10
F38
sI11
F45
sI12
F59
sI13
F92
sI14
F52
sI15
F77
sI16
F106
sa(dp549
I1
F90
sI2
F65
sI3
F72
sI4
F64
sI5
F72
sI6
F50
sI7
F28
sI8
F67
sI9
F79
sI10
F42
sI11
F49
sI12
F58
sI13
F50
sI14
F60
sI15
F79
sI16
F80
sa(dp550
I1
F349
sI2
F155
sI3
F180
sI4
F226
sI5
F176
sI6
F95
sI7
F69
sI8
F114
sI9
F197
sI10
F94
sI11
F122
sI12
F125
sI13
F187
sI14
F110
sI15
F168
sI16
F220
sa(dp551
I1
F390
sI2
F177
sI3
F191
sI4
F277
sI5
F198
sI6
F103
sI7
F83
sI8
F155
sI9
F224
sI10
F102
sI11
F102
sI12
F139
sI13
F223
sI14
F157
sI15
F191
sI16
F291
sa(dp552
I1
F75
sI2
F41
sI3
F41
sI4
F46
sI5
F46
sI6
F30
sI7
F19
sI8
F29
sI9
F47
sI10
F18
sI11
F25
sI12
F40
sI13
F35
sI14
F35
sI15
F45
sI16
F58
sa(dp553
I1
F74
sI2
F37
sI3
F42
sI4
F59
sI5
F41
sI6
F28
sI7
F33
sI8
F43
sI9
F55
sI10
F40
sI11
F34
sI12
F28
sI13
F41
sI14
F40
sI15
F49
sI16
F57
sa(dp554
I1
F104
sI2
F67
sI3
F69
sI4
F107
sI5
F79
sI6
F44
sI7
F35
sI8
F54
sI9
F80
sI10
F47
sI11
F49
sI12
F49
sI13
F83
sI14
F54
sI15
F73
sI16
F97
sa(dp555
I1
F74
sI2
F29
sI3
F44
sI4
F44
sI5
F30
sI6
F18
sI7
F11
sI8
F32
sI9
F48
sI10
F18
sI11
F26
sI12
F22
sI13
F38
sI14
F26
sI15
F34
sI16
F45
sa(dp556
I1
F373
sI2
F144
sI3
F181
sI4
F254
sI5
F149
sI6
F92
sI7
F80
sI8
F150
sI9
F221
sI10
F89
sI11
F133
sI12
F134
sI13
F208
sI14
F146
sI15
F184
sI16
F250
sa(dp557
I1
F549
sI2
F207
sI3
F280
sI4
F324
sI5
F238
sI6
F125
sI7
F120
sI8
F162
sI9
F329
sI10
F125
sI11
F145
sI12
F168
sI13
F244
sI14
F188
sI15
F222
sI16
F306
sa(dp558
I1
F295
sI2
F110
sI3
F202
sI4
F172
sI5
F112
sI6
F68
sI7
F63
sI8
F87
sI9
F230
sI10
F84
sI11
F120
sI12
F121
sI13
F141
sI14
F68
sI15
F171
sI16
F183
sa(dp559
I1
F196
sI2
F80
sI3
F92
sI4
F147
sI5
F108
sI6
F50
sI7
F44
sI8
F76
sI9
F103
sI10
F56
sI11
F61
sI12
F70
sI13
F107
sI14
F92
sI15
F93
sI16
F149
sa(dp560
I1
F246
sI2
F112
sI3
F125
sI4
F173
sI5
F160
sI6
F67
sI7
F46
sI8
F130
sI9
F131
sI10
F74
sI11
F71
sI12
F83
sI13
F119
sI14
F150
sI15
F117
sI16
F193
sa(dp561
I1
F283
sI2
F80
sI3
F136
sI4
F130
sI5
F110
sI6
F40
sI7
F48
sI8
F52
sI9
F144
sI10
F64
sI11
F62
sI12
F67
sI13
F91
sI14
F66
sI15
F92
sI16
F101
sa(dp562
I1
F107
sI2
F40
sI3
F79
sI4
F102
sI5
F60
sI6
F29
sI7
F22
sI8
F47
sI9
F88
sI10
F36
sI11
F52
sI12
F58
sI13
F73
sI14
F53
sI15
F81
sI16
F99
sa(dp563
I1
F414
sI2
F185
sI3
F201
sI4
F292
sI5
F220
sI6
F113
sI7
F103
sI8
F134
sI9
F242
sI10
F110
sI11
F121
sI12
F143
sI13
F215
sI14
F162
sI15
F192
sI16
F254
sa(dp564
I1
F320
sI2
F166
sI3
F174
sI4
F268
sI5
F197
sI6
F142
sI7
F85
sI8
F197
sI9
F199
sI10
F130
sI11
F128
sI12
F149
sI13
F211
sI14
F183
sI15
F220
sI16
F284
sa(dp565
I1
F44
sI2
F36
sI3
F38
sI4
F47
sI5
F36
sI6
F33
sI7
F17
sI8
F29
sI9
F49
sI10
F16
sI11
F25
sI12
F31
sI13
F35
sI14
F30
sI15
F42
sI16
F34
sa(dp566
I1
F116
sI2
F71
sI3
F91
sI4
F131
sI5
F89
sI6
F62
sI7
F55
sI8
F116
sI9
F103
sI10
F94
sI11
F98
sI12
F89
sI13
F100
sI14
F95
sI15
F141
sI16
F197
sa(dp567
I1
F293
sI2
F139
sI3
F157
sI4
F237
sI5
F198
sI6
F81
sI7
F63
sI8
F108
sI9
F163
sI10
F93
sI11
F81
sI12
F110
sI13
F172
sI14
F137
sI15
F146
sI16
F158
sa(dp568
I1
F259
sI2
F111
sI3
F135
sI4
F163
sI5
F124
sI6
F79
sI7
F73
sI8
F109
sI9
F156
sI10
F95
sI11
F91
sI12
F106
sI13
F129
sI14
F100
sI15
F149
sI16
F168
sa(dp569
I1
F55
sI2
F11
sI3
F29
sI4
F21
sI5
F16
sI6
F10
sI7
F14
sI8
F16
sI9
F27
sI10
F15
sI11
F15
sI12
F15
sI13
F18
sI14
F20
sI15
F14
sI16
F33
sa(dp570
I1
F318
sI2
F140
sI3
F179
sI4
F237
sI5
F164
sI6
F96
sI7
F85
sI8
F155
sI9
F190
sI10
F127
sI11
F136
sI12
F149
sI13
F202
sI14
F137
sI15
F202
sI16
F274
sa(dp571
I1
F331
sI2
F162
sI3
F165
sI4
F195
sI5
F205
sI6
F116
sI7
F71
sI8
F118
sI9
F196
sI10
F94
sI11
F93
sI12
F83
sI13
F121
sI14
F138
sI15
F137
sI16
F144
sa(dp572
I1
F321
sI2
F121
sI3
F143
sI4
F224
sI5
F155
sI6
F78
sI7
F53
sI8
F151
sI9
F193
sI10
F58
sI11
F65
sI12
F103
sI13
F139
sI14
F180
sI15
F159
sI16
F255
sa(dp573
I1
F150
sI2
F74
sI3
F57
sI4
F125
sI5
F75
sI6
F40
sI7
F28
sI8
F84
sI9
F69
sI10
F46
sI11
F56
sI12
F61
sI13
F112
sI14
F67
sI15
F91
sI16
F139
sa(dp574
I1
F52
sI2
F15
sI3
F41
sI4
F33
sI5
F21
sI6
F11
sI7
F7
sI8
F21
sI9
F48
sI10
F16
sI11
F25
sI12
F15
sI13
F19
sI14
F18
sI15
F32
sI16
F29
sa(dp575
I1
F134
sI2
F70
sI3
F93
sI4
F120
sI5
F74
sI6
F46
sI7
F34
sI8
F82
sI9
F104
sI10
F58
sI11
F73
sI12
F68
sI13
F105
sI14
F62
sI15
F103
sI16
F139
sa(dp576
I1
F413
sI2
F199
sI3
F206
sI4
F287
sI5
F245
sI6
F107
sI7
F82
sI8
F148
sI9
F253
sI10
F106
sI11
F114
sI12
F116
sI13
F194
sI14
F170
sI15
F187
sI16
F167
sa(dp577
I1
F140
sI2
F86
sI3
F81
sI4
F112
sI5
F84
sI6
F63
sI7
F41
sI8
F91
sI9
F104
sI10
F49
sI11
F56
sI12
F58
sI13
F90
sI14
F81
sI15
F90
sI16
F180
sa(dp578
I1
F22
sI2
F14
sI3
F17
sI4
F29
sI5
F25
sI6
F17
sI7
F5
sI8
F24
sI9
F12
sI10
F19
sI11
F9
sI12
F17
sI13
F23
sI14
F21
sI15
F26
sI16
F40
sa(dp579
I1
F121
sI2
F64
sI3
F82
sI4
F131
sI5
F84
sI6
F43
sI7
F32
sI8
F91
sI9
F71
sI10
F56
sI11
F77
sI12
F104
sI13
F122
sI14
F87
sI15
F117
sI16
F186
sa(dp580
I1
F431
sI2
F188
sI3
F266
sI4
F271
sI5
F213
sI6
F140
sI7
F110
sI8
F157
sI9
F304
sI10
F136
sI11
F151
sI12
F151
sI13
F208
sI14
F156
sI15
F215
sI16
F249
sa(dp581
I1
F137
sI2
F80
sI3
F99
sI4
F111
sI5
F94
sI6
F39
sI7
F44
sI8
F66
sI9
F110
sI10
F57
sI11
F81
sI12
F68
sI13
F86
sI14
F67
sI15
F92
sI16
F102
sa(dp582
I1
F110
sI2
F61
sI3
F86
sI4
F81
sI5
F75
sI6
F41
sI7
F36
sI8
F51
sI9
F88
sI10
F50
sI11
F78
sI12
F71
sI13
F65
sI14
F51
sI15
F87
sI16
F80
sa(dp583
I1
F188
sI2
F73
sI3
F137
sI4
F156
sI5
F95
sI6
F52
sI7
F53
sI8
F85
sI9
F130
sI10
F70
sI11
F88
sI12
F111
sI13
F141
sI14
F90
sI15
F121
sI16
F147
sa(dp584
I1
F103
sI2
F47
sI3
F64
sI4
F70
sI5
F66
sI6
F36
sI7
F23
sI8
F53
sI9
F65
sI10
F40
sI11
F40
sI12
F49
sI13
F49
sI14
F55
sI15
F68
sI16
F88
sa(dp585
I1
F123
sI2
F49
sI3
F75
sI4
F101
sI5
F71
sI6
F42
sI7
F34
sI8
F46
sI9
F76
sI10
F42
sI11
F59
sI12
F62
sI13
F78
sI14
F60
sI15
F71
sI16
F96
sa(dp586
I1
F125
sI2
F17
sI3
F81
sI4
F47
sI5
F30
sI6
F7
sI7
F9
sI8
F20
sI9
F73
sI10
F25
sI11
F39
sI12
F31
sI13
F41
sI14
F17
sI15
F40
sI16
F22
sa(dp587
I1
F251
sI2
F89
sI3
F117
sI4
F93
sI5
F117
sI6
F48
sI7
F27
sI8
F64
sI9
F135
sI10
F46
sI11
F31
sI12
F54
sI13
F47
sI14
F73
sI15
F91
sI16
F106
sa(dp588
I1
F20
sI2
F23
sI3
F14
sI4
F29
sI5
F26
sI6
F26
sI7
F9
sI8
F30
sI9
F12
sI10
F16
sI11
F18
sI12
F22
sI13
F28
sI14
F26
sI15
F27
sI16
F50
sa(dp589
I1
F153
sI2
F51
sI3
F51
sI4
F119
sI5
F62
sI6
F24
sI7
F24
sI8
F51
sI9
F74
sI10
F26
sI11
F23
sI12
F36
sI13
F85
sI14
F60
sI15
F61
sI16
F146
sa(dp590
I1
F113
sI2
F56
sI3
F73
sI4
F84
sI5
F67
sI6
F41
sI7
F26
sI8
F73
sI9
F77
sI10
F52
sI11
F53
sI12
F53
sI13
F69
sI14
F58
sI15
F83
sI16
F127
sa(dp591
I1
F115
sI2
F57
sI3
F72
sI4
F101
sI5
F62
sI6
F32
sI7
F44
sI8
F50
sI9
F92
sI10
F44
sI11
F58
sI12
F51
sI13
F75
sI14
F55
sI15
F72
sI16
F93
sa(dp592
I1
F117
sI2
F70
sI3
F71
sI4
F91
sI5
F81
sI6
F23
sI7
F27
sI8
F35
sI9
F81
sI10
F32
sI11
F52
sI12
F36
sI13
F70
sI14
F41
sI15
F51
sI16
F71
sa(dp593
I1
F115
sI2
F47
sI3
F70
sI4
F62
sI5
F49
sI6
F29
sI7
F22
sI8
F42
sI9
F73
sI10
F33
sI11
F35
sI12
F38
sI13
F56
sI14
F33
sI15
F53
sI16
F74
sa(dp594
I1
F63
sI2
F33
sI3
F54
sI4
F48
sI5
F55
sI6
F24
sI7
F22
sI8
F48
sI9
F41
sI10
F40
sI11
F30
sI12
F43
sI13
F39
sI14
F52
sI15
F48
sI16
F58
sa(dp595
I1
F264
sI2
F113
sI3
F179
sI4
F148
sI5
F119
sI6
F72
sI7
F48
sI8
F125
sI9
F222
sI10
F56
sI11
F73
sI12
F92
sI13
F99
sI14
F123
sI15
F143
sI16
F206
sa(dp596
I1
F292
sI2
F115
sI3
F152
sI4
F160
sI5
F128
sI6
F61
sI7
F54
sI8
F102
sI9
F152
sI10
F61
sI11
F71
sI12
F89
sI13
F146
sI14
F108
sI15
F97
sI16
F150
sa(dp597
I1
F101
sI2
F71
sI3
F68
sI4
F117
sI5
F81
sI6
F40
sI7
F48
sI8
F74
sI9
F87
sI10
F59
sI11
F98
sI12
F81
sI13
F87
sI14
F73
sI15
F112
sI16
F159
sa(dp598
I1
F134
sI2
F37
sI3
F72
sI4
F79
sI5
F51
sI6
F22
sI7
F20
sI8
F32
sI9
F89
sI10
F31
sI11
F47
sI12
F30
sI13
F48
sI14
F35
sI15
F58
sI16
F58
sa(dp599
I1
F66
sI2
F29
sI3
F27
sI4
F38
sI5
F26
sI6
F17
sI7
F11
sI8
F31
sI9
F34
sI10
F16
sI11
F35
sI12
F22
sI13
F34
sI14
F23
sI15
F34
sI16
F54
sa(dp600
I1
F67
sI2
F14
sI3
F32
sI4
F30
sI5
F28
sI6
F22
sI7
F7
sI8
F14
sI9
F24
sI10
F11
sI11
F20
sI12
F22
sI13
F23
sI14
F24
sI15
F19
sI16
F31
sa(dp601
I1
F597
sI2
F239
sI3
F295
sI4
F424
sI5
F278
sI6
F155
sI7
F112
sI8
F216
sI9
F341
sI10
F141
sI11
F159
sI12
F214
sI13
F339
sI14
F226
sI15
F289
sI16
F416
sa(dp602
I1
F403
sI2
F170
sI3
F236
sI4
F306
sI5
F193
sI6
F100
sI7
F90
sI8
F164
sI9
F294
sI10
F113
sI11
F141
sI12
F142
sI13
F225
sI14
F164
sI15
F223
sI16
F284
sa(dp603
I1
F374
sI2
F210
sI3
F157
sI4
F245
sI5
F255
sI6
F146
sI7
F72
sI8
F160
sI9
F174
sI10
F127
sI11
F108
sI12
F102
sI13
F183
sI14
F150
sI15
F174
sI16
F228
sa(dp604
I1
F142
sI2
F87
sI3
F90
sI4
F127
sI5
F97
sI6
F53
sI7
F31
sI8
F79
sI9
F94
sI10
F46
sI11
F73
sI12
F74
sI13
F113
sI14
F74
sI15
F93
sI16
F157
sa(dp605
I1
F288
sI2
F112
sI3
F131
sI4
F221
sI5
F154
sI6
F79
sI7
F53
sI8
F107
sI9
F161
sI10
F70
sI11
F84
sI12
F102
sI13
F149
sI14
F132
sI15
F149
sI16
F262
sa(dp606
I1
F91
sI2
F42
sI3
F51
sI4
F71
sI5
F55
sI6
F21
sI7
F22
sI8
F26
sI9
F51
sI10
F29
sI11
F24
sI12
F38
sI13
F58
sI14
F32
sI15
F45
sI16
F63
sa(dp607
I1
F30
sI2
F13
sI3
F25
sI4
F19
sI5
F12
sI6
F8
sI7
F3
sI8
F16
sI9
F21
sI10
F7
sI11
F12
sI12
F11
sI13
F24
sI14
F11
sI15
F11
sI16
F32
sa(dp608
I1
F252
sI2
F124
sI3
F121
sI4
F173
sI5
F135
sI6
F105
sI7
F73
sI8
F101
sI9
F138
sI10
F68
sI11
F77
sI12
F81
sI13
F144
sI14
F117
sI15
F94
sI16
F129
sa(dp609
I1
F102
sI2
F68
sI3
F106
sI4
F143
sI5
F104
sI6
F63
sI7
F55
sI8
F114
sI9
F101
sI10
F88
sI11
F108
sI12
F103
sI13
F112
sI14
F117
sI15
F131
sI16
F207
sa(dp610
I1
F151
sI2
F59
sI3
F96
sI4
F54
sI5
F63
sI6
F33
sI7
F28
sI8
F42
sI9
F99
sI10
F29
sI11
F48
sI12
F43
sI13
F47
sI14
F45
sI15
F47
sI16
F50
sa(dp611
I1
F81
sI2
F47
sI3
F41
sI4
F64
sI5
F40
sI6
F25
sI7
F30
sI8
F31
sI9
F67
sI10
F23
sI11
F38
sI12
F35
sI13
F45
sI14
F31
sI15
F54
sI16
F61
sa(dp612
I1
F185
sI2
F119
sI3
F110
sI4
F119
sI5
F119
sI6
F74
sI7
F58
sI8
F97
sI9
F157
sI10
F59
sI11
F91
sI12
F93
sI13
F71
sI14
F96
sI15
F142
sI16
F150
sa(dp613
I1
F194
sI2
F68
sI3
F97
sI4
F134
sI5
F94
sI6
F53
sI7
F38
sI8
F67
sI9
F108
sI10
F50
sI11
F66
sI12
F72
sI13
F97
sI14
F81
sI15
F95
sI16
F134
sa(dp614
I1
F195
sI2
F66
sI3
F120
sI4
F97
sI5
F78
sI6
F27
sI7
F33
sI8
F63
sI9
F125
sI10
F65
sI11
F59
sI12
F51
sI13
F79
sI14
F43
sI15
F89
sI16
F87
sa(dp615
I1
F117
sI2
F62
sI3
F51
sI4
F99
sI5
F67
sI6
F38
sI7
F36
sI8
F52
sI9
F76
sI10
F43
sI11
F38
sI12
F43
sI13
F68
sI14
F50
sI15
F76
sI16
F92
sa(dp616
I1
F132
sI2
F83
sI3
F69
sI4
F109
sI5
F90
sI6
F57
sI7
F42
sI8
F75
sI9
F90
sI10
F50
sI11
F66
sI12
F51
sI13
F80
sI14
F74
sI15
F81
sI16
F98
sa(dp617
I1
F149
sI2
F74
sI3
F88
sI4
F124
sI5
F102
sI6
F59
sI7
F37
sI8
F68
sI9
F103
sI10
F63
sI11
F89
sI12
F70
sI13
F81
sI14
F70
sI15
F111
sI16
F148
sa(dp618
I1
F382
sI2
F202
sI3
F169
sI4
F229
sI5
F256
sI6
F122
sI7
F69
sI8
F132
sI9
F170
sI10
F109
sI11
F105
sI12
F100
sI13
F174
sI14
F146
sI15
F141
sI16
F193
sa(dp619
I1
F21
sI2
F11
sI3
F10
sI4
F8
sI5
F14
sI6
F7
sI7
F9
sI8
F9
sI9
F9
sI10
F4
sI11
F7
sI12
F13
sI13
F6
sI14
F17
sI15
F7
sI16
F15
sa(dp620
I1
F238
sI2
F116
sI3
F152
sI4
F190
sI5
F145
sI6
F66
sI7
F61
sI8
F98
sI9
F175
sI10
F78
sI11
F92
sI12
F99
sI13
F138
sI14
F110
sI15
F139
sI16
F212
sa(dp621
I1
F301
sI2
F153
sI3
F141
sI4
F203
sI5
F178
sI6
F130
sI7
F76
sI8
F117
sI9
F164
sI10
F88
sI11
F83
sI12
F94
sI13
F154
sI14
F130
sI15
F130
sI16
F132
sa(dp622
I1
F384
sI2
F176
sI3
F233
sI4
F256
sI5
F233
sI6
F129
sI7
F83
sI8
F131
sI9
F238
sI10
F130
sI11
F111
sI12
F104
sI13
F193
sI14
F141
sI15
F157
sI16
F201
sa(dp623
I1
F38
sI2
F35
sI3
F35
sI4
F40
sI5
F43
sI6
F28
sI7
F24
sI8
F47
sI9
F37
sI10
F33
sI11
F37
sI12
F37
sI13
F29
sI14
F46
sI15
F49
sI16
F78
sa(dp624
I1
F174
sI2
F35
sI3
F78
sI4
F67
sI5
F45
sI6
F25
sI7
F23
sI8
F33
sI9
F90
sI10
F27
sI11
F34
sI12
F32
sI13
F45
sI14
F39
sI15
F48
sI16
F62
sa(dp625
I1
F667
sI2
F236
sI3
F350
sI4
F322
sI5
F248
sI6
F118
sI7
F114
sI8
F210
sI9
F405
sI10
F141
sI11
F173
sI12
F176
sI13
F255
sI14
F195
sI15
F258
sI16
F319
sa(dp626
I1
F169
sI2
F85
sI3
F116
sI4
F142
sI5
F96
sI6
F53
sI7
F45
sI8
F121
sI9
F121
sI10
F89
sI11
F107
sI12
F106
sI13
F126
sI14
F88
sI15
F155
sI16
F201
sa(dp627
I1
F39
sI2
F18
sI3
F15
sI4
F32
sI5
F22
sI6
F10
sI7
F12
sI8
F20
sI9
F17
sI10
F15
sI11
F16
sI12
F16
sI13
F26
sI14
F21
sI15
F21
sI16
F29
sa(dp628
I1
F32
sI2
F15
sI3
F21
sI4
F18
sI5
F17
sI6
F19
sI7
F9
sI8
F17
sI9
F20
sI10
F11
sI11
F18
sI12
F25
sI13
F17
sI14
F17
sI15
F26
sI16
F32
sa(dp629
I1
F288
sI2
F104
sI3
F180
sI4
F189
sI5
F131
sI6
F81
sI7
F71
sI8
F98
sI9
F200
sI10
F93
sI11
F132
sI12
F153
sI13
F142
sI14
F103
sI15
F195
sI16
F232
sa(dp630
I1
F297
sI2
F268
sI3
F257
sI4
F243
sI5
F386
sI6
F198
sI7
F130
sI8
F294
sI9
F156
sI10
F188
sI11
F111
sI12
F225
sI13
F225
sI14
F354
sI15
F183
sI16
F341
sa(dp631
I1
F170
sI2
F94
sI3
F99
sI4
F138
sI5
F120
sI6
F63
sI7
F37
sI8
F70
sI9
F113
sI10
F53
sI11
F63
sI12
F48
sI13
F98
sI14
F80
sI15
F78
sI16
F112
sa(dp632
I1
F115
sI2
F33
sI3
F58
sI4
F76
sI5
F49
sI6
F35
sI7
F17
sI8
F44
sI9
F55
sI10
F37
sI11
F33
sI12
F30
sI13
F63
sI14
F40
sI15
F47
sI16
F87
sa(dp633
I1
F84
sI2
F61
sI3
F60
sI4
F120
sI5
F76
sI6
F49
sI7
F32
sI8
F74
sI9
F71
sI10
F42
sI11
F51
sI12
F70
sI13
F94
sI14
F79
sI15
F91
sI16
F152
sa(dp634
I1
F217
sI2
F92
sI3
F103
sI4
F184
sI5
F105
sI6
F50
sI7
F54
sI8
F82
sI9
F135
sI10
F58
sI11
F67
sI12
F76
sI13
F139
sI14
F91
sI15
F112
sI16
F172
sa(dp635
I1
F130
sI2
F60
sI3
F82
sI4
F89
sI5
F63
sI6
F33
sI7
F34
sI8
F47
sI9
F101
sI10
F36
sI11
F49
sI12
F50
sI13
F67
sI14
F48
sI15
F71
sI16
F77
sa(dp636
I1
F160
sI2
F99
sI3
F117
sI4
F140
sI5
F114
sI6
F65
sI7
F66
sI8
F93
sI9
F123
sI10
F72
sI11
F82
sI12
F88
sI13
F119
sI14
F102
sI15
F100
sI16
F132
sa(dp637
I1
F110
sI2
F73
sI3
F84
sI4
F142
sI5
F111
sI6
F63
sI7
F49
sI8
F99
sI9
F71
sI10
F63
sI11
F79
sI12
F133
sI13
F117
sI14
F123
sI15
F134
sI16
F206
sa(dp638
I1
F59
sI2
F27
sI3
F27
sI4
F46
sI5
F32
sI6
F10
sI7
F18
sI8
F30
sI9
F30
sI10
F20
sI11
F16
sI12
F22
sI13
F38
sI14
F33
sI15
F27
sI16
F65
sa(dp639
I1
F93
sI2
F63
sI3
F65
sI4
F83
sI5
F73
sI6
F54
sI7
F38
sI8
F49
sI9
F67
sI10
F44
sI11
F41
sI12
F54
sI13
F71
sI14
F53
sI15
F62
sI16
F86
sa(dp640
I1
F237
sI2
F125
sI3
F107
sI4
F143
sI5
F124
sI6
F75
sI7
F69
sI8
F88
sI9
F161
sI10
F69
sI11
F73
sI12
F52
sI13
F89
sI14
F87
sI15
F107
sI16
F96
sa(dp641
I1
F319
sI2
F121
sI3
F184
sI4
F193
sI5
F161
sI6
F73
sI7
F56
sI8
F98
sI9
F195
sI10
F80
sI11
F102
sI12
F100
sI13
F142
sI14
F114
sI15
F135
sI16
F201
sa(dp642
I1
F226
sI2
F113
sI3
F141
sI4
F160
sI5
F144
sI6
F82
sI7
F68
sI8
F102
sI9
F158
sI10
F83
sI11
F89
sI12
F113
sI13
F111
sI14
F118
sI15
F146
sI16
F137
sa(dp643
I1
F36
sI2
F18
sI3
F32
sI4
F25
sI5
F26
sI6
F17
sI7
F10
sI8
F12
sI9
F29
sI10
F15
sI11
F14
sI12
F13
sI13
F20
sI14
F15
sI15
F15
sI16
F23
sa(dp644
I1
F57
sI2
F26
sI3
F28
sI4
F39
sI5
F35
sI6
F21
sI7
F17
sI8
F23
sI9
F28
sI10
F21
sI11
F25
sI12
F30
sI13
F29
sI14
F28
sI15
F35
sI16
F61
sa(dp645
I1
F49
sI2
F15
sI3
F28
sI4
F35
sI5
F19
sI6
F15
sI7
F17
sI8
F23
sI9
F35
sI10
F18
sI11
F29
sI12
F23
sI13
F24
sI14
F26
sI15
F31
sI16
F37
sa(dp646
I1
F275
sI2
F117
sI3
F152
sI4
F190
sI5
F161
sI6
F70
sI7
F44
sI8
F96
sI9
F163
sI10
F88
sI11
F100
sI12
F90
sI13
F134
sI14
F96
sI15
F146
sI16
F196
sa(dp647
I1
F53
sI2
F17
sI3
F43
sI4
F54
sI5
F16
sI6
F11
sI7
F15
sI8
F14
sI9
F61
sI10
F18
sI11
F27
sI12
F20
sI13
F37
sI14
F10
sI15
F41
sI16
F40
sa(dp648
I1
F97
sI2
F26
sI3
F53
sI4
F47
sI5
F26
sI6
F14
sI7
F12
sI8
F22
sI9
F61
sI10
F13
sI11
F31
sI12
F27
sI13
F39
sI14
F21
sI15
F36
sI16
F25
sa(dp649
I1
F79
sI2
F41
sI3
F58
sI4
F61
sI5
F53
sI6
F32
sI7
F27
sI8
F53
sI9
F50
sI10
F46
sI11
F51
sI12
F44
sI13
F57
sI14
F46
sI15
F55
sI16
F87
sa(dp650
I1
F110
sI2
F37
sI3
F68
sI4
F50
sI5
F52
sI6
F24
sI7
F25
sI8
F30
sI9
F59
sI10
F30
sI11
F36
sI12
F48
sI13
F44
sI14
F40
sI15
F44
sI16
F54
sa(dp651
I1
F174
sI2
F77
sI3
F93
sI4
F104
sI5
F88
sI6
F50
sI7
F41
sI8
F62
sI9
F94
sI10
F56
sI11
F52
sI12
F62
sI13
F92
sI14
F58
sI15
F78
sI16
F125
sa(dp652
I1
F86
sI2
F22
sI3
F49
sI4
F46
sI5
F25
sI6
F16
sI7
F9
sI8
F34
sI9
F55
sI10
F16
sI11
F17
sI12
F18
sI13
F37
sI14
F30
sI15
F31
sI16
F59
sa(dp653
I1
F71
sI2
F33
sI3
F35
sI4
F50
sI5
F30
sI6
F24
sI7
F16
sI8
F35
sI9
F45
sI10
F22
sI11
F25
sI12
F29
sI13
F43
sI14
F26
sI15
F45
sI16
F45
sa(dp654
I1
F297
sI2
F135
sI3
F159
sI4
F202
sI5
F142
sI6
F56
sI7
F56
sI8
F127
sI9
F182
sI10
F65
sI11
F99
sI12
F115
sI13
F171
sI14
F125
sI15
F148
sI16
F213
sa(dp655
I1
F179
sI2
F65
sI3
F96
sI4
F132
sI5
F76
sI6
F48
sI7
F36
sI8
F58
sI9
F112
sI10
F44
sI11
F56
sI12
F66
sI13
F105
sI14
F61
sI15
F90
sI16
F112
sa(dp656
I1
F126
sI2
F76
sI3
F70
sI4
F130
sI5
F108
sI6
F78
sI7
F57
sI8
F83
sI9
F87
sI10
F62
sI11
F65
sI12
F86
sI13
F80
sI14
F110
sI15
F109
sI16
F159
sa(dp657
I1
F255
sI2
F78
sI3
F136
sI4
F155
sI5
F119
sI6
F48
sI7
F46
sI8
F69
sI9
F145
sI10
F65
sI11
F85
sI12
F82
sI13
F104
sI14
F91
sI15
F111
sI16
F139
sa(dp658
I1
F30
sI2
F19
sI3
F19
sI4
F25
sI5
F25
sI6
F19
sI7
F10
sI8
F20
sI9
F16
sI10
F16
sI11
F28
sI12
F23
sI13
F21
sI14
F20
sI15
F27
sI16
F17
sa(dp659
I1
F351
sI2
F177
sI3
F198
sI4
F268
sI5
F178
sI6
F103
sI7
F83
sI8
F142
sI9
F235
sI10
F89
sI11
F150
sI12
F152
sI13
F229
sI14
F137
sI15
F196
sI16
F289
sa(dp660
I1
F358
sI2
F182
sI3
F187
sI4
F354
sI5
F239
sI6
F104
sI7
F83
sI8
F156
sI9
F234
sI10
F103
sI11
F144
sI12
F162
sI13
F250
sI14
F193
sI15
F229
sI16
F362
sa(dp661
I1
F187
sI2
F88
sI3
F119
sI4
F154
sI5
F116
sI6
F69
sI7
F59
sI8
F85
sI9
F144
sI10
F63
sI11
F84
sI12
F86
sI13
F101
sI14
F109
sI15
F115
sI16
F140
sa(dp662
I1
F167
sI2
F100
sI3
F102
sI4
F125
sI5
F122
sI6
F73
sI7
F52
sI8
F71
sI9
F127
sI10
F62
sI11
F71
sI12
F51
sI13
F78
sI14
F83
sI15
F86
sI16
F107
sa(dp663
I1
F256
sI2
F103
sI3
F155
sI4
F188
sI5
F145
sI6
F92
sI7
F68
sI8
F105
sI9
F159
sI10
F88
sI11
F94
sI12
F109
sI13
F142
sI14
F127
sI15
F133
sI16
F174
sa(dp664
I1
F131
sI2
F94
sI3
F77
sI4
F124
sI5
F98
sI6
F60
sI7
F44
sI8
F110
sI9
F76
sI10
F61
sI11
F68
sI12
F99
sI13
F121
sI14
F97
sI15
F115
sI16
F170
sa(dp665
I1
F308
sI2
F139
sI3
F181
sI4
F208
sI5
F186
sI6
F98
sI7
F73
sI8
F144
sI9
F170
sI10
F128
sI11
F146
sI12
F142
sI13
F172
sI14
F136
sI15
F186
sI16
F241
sa(dp666
I1
F200
sI2
F66
sI3
F131
sI4
F125
sI5
F92
sI6
F49
sI7
F31
sI8
F100
sI9
F130
sI10
F71
sI11
F69
sI12
F69
sI13
F100
sI14
F86
sI15
F108
sI16
F109
sa(dp667
I1
F272
sI2
F127
sI3
F198
sI4
F116
sI5
F144
sI6
F107
sI7
F55
sI8
F117
sI9
F188
sI10
F87
sI11
F92
sI12
F77
sI13
F109
sI14
F102
sI15
F99
sI16
F116
sa(dp668
I1
F344
sI2
F148
sI3
F204
sI4
F326
sI5
F202
sI6
F88
sI7
F78
sI8
F130
sI9
F244
sI10
F94
sI11
F110
sI12
F156
sI13
F232
sI14
F168
sI15
F212
sI16
F329
sa(dp669
I1
F280
sI2
F110
sI3
F162
sI4
F216
sI5
F151
sI6
F66
sI7
F57
sI8
F110
sI9
F174
sI10
F85
sI11
F95
sI12
F109
sI13
F163
sI14
F123
sI15
F149
sI16
F224
sa(dp670
I1
F26
sI2
F14
sI3
F14
sI4
F27
sI5
F20
sI6
F12
sI7
F8
sI8
F27
sI9
F14
sI10
F13
sI11
F17
sI12
F18
sI13
F21
sI14
F28
sI15
F23
sI16
F47
sa(dp671
I1
F673
sI2
F274
sI3
F347
sI4
F432
sI5
F338
sI6
F198
sI7
F131
sI8
F245
sI9
F401
sI10
F162
sI11
F172
sI12
F191
sI13
F313
sI14
F278
sI15
F277
sI16
F398
sa(dp672
I1
F109
sI2
F52
sI3
F84
sI4
F92
sI5
F85
sI6
F50
sI7
F32
sI8
F50
sI9
F84
sI10
F45
sI11
F51
sI12
F58
sI13
F59
sI14
F70
sI15
F71
sI16
F84
sa(dp673
I1
F36
sI2
F20
sI3
F19
sI4
F37
sI5
F23
sI6
F19
sI7
F17
sI8
F30
sI9
F25
sI10
F14
sI11
F21
sI12
F36
sI13
F28
sI14
F36
sI15
F39
sI16
F44
sa(dp674
I1
F171
sI2
F99
sI3
F104
sI4
F154
sI5
F104
sI6
F63
sI7
F48
sI8
F89
sI9
F126
sI10
F54
sI11
F96
sI12
F94
sI13
F126
sI14
F88
sI15
F122
sI16
F169
sa(dp675
I1
F68
sI2
F34
sI3
F40
sI4
F39
sI5
F40
sI6
F19
sI7
F14
sI8
F27
sI9
F45
sI10
F18
sI11
F18
sI12
F24
sI13
F28
sI14
F29
sI15
F33
sI16
F39
sa(dp676
I1
F373
sI2
F135
sI3
F243
sI4
F200
sI5
F179
sI6
F86
sI7
F82
sI8
F125
sI9
F249
sI10
F124
sI11
F143
sI12
F132
sI13
F150
sI14
F127
sI15
F180
sI16
F195
sa(dp677
I1
F29
sI2
F13
sI3
F22
sI4
F31
sI5
F19
sI6
F6
sI7
F8
sI8
F13
sI9
F31
sI10
F9
sI11
F12
sI12
F12
sI13
F16
sI14
F18
sI15
F22
sI16
F18
sa(dp678
I1
F176
sI2
F117
sI3
F80
sI4
F145
sI5
F119
sI6
F58
sI7
F66
sI8
F99
sI9
F109
sI10
F68
sI11
F73
sI12
F73
sI13
F114
sI14
F99
sI15
F104
sI16
F160
sa(dp679
I1
F96
sI2
F33
sI3
F47
sI4
F53
sI5
F51
sI6
F15
sI7
F12
sI8
F14
sI9
F39
sI10
F22
sI11
F31
sI12
F28
sI13
F42
sI14
F22
sI15
F31
sI16
F29
sa(dp680
I1
F67
sI2
F40
sI3
F48
sI4
F58
sI5
F44
sI6
F28
sI7
F24
sI8
F34
sI9
F46
sI10
F26
sI11
F36
sI12
F49
sI13
F56
sI14
F36
sI15
F49
sI16
F69
sa(dp681
I1
F35
sI2
F12
sI3
F17
sI4
F32
sI5
F15
sI6
F14
sI7
F6
sI8
F18
sI9
F14
sI10
F7
sI11
F14
sI12
F16
sI13
F31
sI14
F20
sI15
F15
sI16
F39
sa(dp682
I1
F148
sI2
F59
sI3
F82
sI4
F107
sI5
F77
sI6
F50
sI7
F41
sI8
F57
sI9
F93
sI10
F54
sI11
F64
sI12
F66
sI13
F78
sI14
F62
sI15
F90
sI16
F122
sa(dp683
I1
F147
sI2
F40
sI3
F95
sI4
F116
sI5
F61
sI6
F36
sI7
F25
sI8
F44
sI9
F108
sI10
F44
sI11
F51
sI12
F57
sI13
F82
sI14
F46
sI15
F89
sI16
F123
sa(dp684
I1
F359
sI2
F142
sI3
F144
sI4
F260
sI5
F173
sI6
F96
sI7
F71
sI8
F134
sI9
F181
sI10
F78
sI11
F71
sI12
F107
sI13
F192
sI14
F158
sI15
F151
sI16
F291
sa(dp685
I1
F30
sI2
F17
sI3
F17
sI4
F43
sI5
F31
sI6
F22
sI7
F11
sI8
F21
sI9
F13
sI10
F14
sI11
F8
sI12
F23
sI13
F32
sI14
F32
sI15
F23
sI16
F54
sa(dp686
I1
F43
sI2
F8
sI3
F34
sI4
F28
sI5
F17
sI6
F4
sI7
F13
sI8
F13
sI9
F28
sI10
F17
sI11
F21
sI12
F22
sI13
F25
sI14
F18
sI15
F20
sI16
F39
sa(dp687
I1
F71
sI2
F38
sI3
F43
sI4
F39
sI5
F34
sI6
F23
sI7
F12
sI8
F39
sI9
F53
sI10
F22
sI11
F35
sI12
F23
sI13
F33
sI14
F25
sI15
F43
sI16
F26
sa(dp688
I1
F94
sI2
F52
sI3
F78
sI4
F86
sI5
F51
sI6
F31
sI7
F24
sI8
F38
sI9
F86
sI10
F28
sI11
F47
sI12
F52
sI13
F79
sI14
F33
sI15
F64
sI16
F73
sa(dp689
I1
F115
sI2
F67
sI3
F83
sI4
F142
sI5
F86
sI6
F51
sI7
F53
sI8
F75
sI9
F100
sI10
F64
sI11
F88
sI12
F92
sI13
F106
sI14
F83
sI15
F120
sI16
F188
sa(dp690
I1
F325
sI2
F167
sI3
F168
sI4
F309
sI5
F179
sI6
F85
sI7
F75
sI8
F175
sI9
F210
sI10
F77
sI11
F92
sI12
F155
sI13
F255
sI14
F185
sI15
F199
sI16
F406
sa(dp691
I1
F247
sI2
F148
sI3
F150
sI4
F234
sI5
F178
sI6
F90
sI7
F80
sI8
F149
sI9
F161
sI10
F106
sI11
F144
sI12
F143
sI13
F193
sI14
F153
sI15
F180
sI16
F255
sa(dp692
I1
F128
sI2
F61
sI3
F66
sI4
F106
sI5
F84
sI6
F36
sI7
F31
sI8
F38
sI9
F71
sI10
F39
sI11
F53
sI12
F54
sI13
F77
sI14
F53
sI15
F68
sI16
F81
sa(dp693
I1
F120
sI2
F94
sI3
F91
sI4
F113
sI5
F115
sI6
F85
sI7
F45
sI8
F77
sI9
F101
sI10
F66
sI11
F70
sI12
F99
sI13
F81
sI14
F77
sI15
F131
sI16
F118
sa(dp694
I1
F15
sI2
F10
sI3
F14
sI4
F8
sI5
F10
sI6
F12
sI7
F11
sI8
F8
sI9
F13
sI10
F4
sI11
F10
sI12
F23
sI13
F9
sI14
F15
sI15
F15
sI16
F22
sa(dp695
I1
F94
sI2
F48
sI3
F56
sI4
F61
sI5
F51
sI6
F34
sI7
F23
sI8
F47
sI9
F57
sI10
F34
sI11
F25
sI12
F26
sI13
F57
sI14
F39
sI15
F38
sI16
F52
sa(dp696
I1
F30
sI2
F19
sI3
F17
sI4
F29
sI5
F20
sI6
F11
sI7
F4
sI8
F19
sI9
F19
sI10
F8
sI11
F15
sI12
F12
sI13
F26
sI14
F16
sI15
F18
sI16
F37
sa(dp697
I1
F96
sI2
F42
sI3
F48
sI4
F60
sI5
F47
sI6
F7
sI7
F17
sI8
F21
sI9
F60
sI10
F17
sI11
F43
sI12
F36
sI13
F42
sI14
F26
sI15
F49
sI16
F52
sa(dp698
I1
F213
sI2
F130
sI3
F95
sI4
F126
sI5
F143
sI6
F108
sI7
F63
sI8
F111
sI9
F106
sI10
F70
sI11
F55
sI12
F55
sI13
F102
sI14
F117
sI15
F73
sI16
F105
sa(dp699
I1
F66
sI2
F50
sI3
F40
sI4
F46
sI5
F52
sI6
F32
sI7
F22
sI8
F32
sI9
F50
sI10
F20
sI11
F36
sI12
F37
sI13
F34
sI14
F36
sI15
F45
sI16
F68
sa(dp700
I1
F138
sI2
F74
sI3
F88
sI4
F115
sI5
F108
sI6
F56
sI7
F33
sI8
F80
sI9
F85
sI10
F66
sI11
F62
sI12
F59
sI13
F84
sI14
F81
sI15
F89
sI16
F88
sa(dp701
I1
F150
sI2
F96
sI3
F108
sI4
F167
sI5
F117
sI6
F65
sI7
F50
sI8
F112
sI9
F117
sI10
F66
sI11
F80
sI12
F76
sI13
F137
sI14
F117
sI15
F101
sI16
F261
sa(dp702
I1
F389
sI2
F201
sI3
F208
sI4
F340
sI5
F253
sI6
F137
sI7
F118
sI8
F228
sI9
F230
sI10
F177
sI11
F181
sI12
F229
sI13
F266
sI14
F221
sI15
F310
sI16
F448
sa(dp703
I1
F172
sI2
F87
sI3
F102
sI4
F108
sI5
F98
sI6
F53
sI7
F40
sI8
F86
sI9
F112
sI10
F63
sI11
F101
sI12
F75
sI13
F87
sI14
F74
sI15
F108
sI16
F108
sa(dp704
I1
F483
sI2
F219
sI3
F243
sI4
F354
sI5
F232
sI6
F129
sI7
F102
sI8
F192
sI9
F309
sI10
F120
sI11
F145
sI12
F153
sI13
F275
sI14
F187
sI15
F237
sI16
F376
sa(dp705
I1
F26
sI2
F23
sI3
F18
sI4
F21
sI5
F30
sI6
F20
sI7
F17
sI8
F26
sI9
F14
sI10
F27
sI11
F13
sI12
F15
sI13
F18
sI14
F23
sI15
F21
sI16
F26
sa(dp706
I1
F279
sI2
F108
sI3
F142
sI4
F152
sI5
F115
sI6
F74
sI7
F51
sI8
F116
sI9
F178
sI10
F71
sI11
F71
sI12
F108
sI13
F108
sI14
F103
sI15
F165
sI16
F179
sa(dp707
I1
F97
sI2
F49
sI3
F40
sI4
F69
sI5
F50
sI6
F27
sI7
F22
sI8
F26
sI9
F57
sI10
F19
sI11
F19
sI12
F27
sI13
F50
sI14
F30
sI15
F42
sI16
F77
sa(dp708
I1
F145
sI2
F70
sI3
F62
sI4
F133
sI5
F86
sI6
F46
sI7
F24
sI8
F101
sI9
F64
sI10
F57
sI11
F73
sI12
F71
sI13
F115
sI14
F84
sI15
F106
sI16
F211
sa(dp709
I1
F167
sI2
F80
sI3
F93
sI4
F180
sI5
F106
sI6
F62
sI7
F55
sI8
F96
sI9
F101
sI10
F80
sI11
F92
sI12
F90
sI13
F145
sI14
F97
sI15
F124
sI16
F231
sa(dp710
I1
F37
sI2
F39
sI3
F23
sI4
F40
sI5
F25
sI6
F25
sI7
F14
sI8
F38
sI9
F32
sI10
F19
sI11
F23
sI12
F23
sI13
F44
sI14
F19
sI15
F38
sI16
F35
sa(dp711
I1
F208
sI2
F67
sI3
F94
sI4
F120
sI5
F68
sI6
F34
sI7
F42
sI8
F64
sI9
F127
sI10
F52
sI11
F59
sI12
F53
sI13
F86
sI14
F55
sI15
F96
sI16
F105
sa(dp712
I1
F311
sI2
F128
sI3
F174
sI4
F219
sI5
F183
sI6
F83
sI7
F63
sI8
F99
sI9
F181
sI10
F89
sI11
F135
sI12
F119
sI13
F157
sI14
F128
sI15
F152
sI16
F204
sa(dp713
I1
F120
sI2
F63
sI3
F62
sI4
F120
sI5
F89
sI6
F52
sI7
F36
sI8
F58
sI9
F87
sI10
F41
sI11
F55
sI12
F56
sI13
F68
sI14
F79
sI15
F87
sI16
F94
sa(dp714
I1
F155
sI2
F72
sI3
F86
sI4
F102
sI5
F77
sI6
F50
sI7
F44
sI8
F67
sI9
F101
sI10
F58
sI11
F73
sI12
F84
sI13
F82
sI14
F58
sI15
F113
sI16
F125
sa(dp715
I1
F55
sI2
F11
sI3
F29
sI4
F21
sI5
F16
sI6
F10
sI7
F14
sI8
F16
sI9
F27
sI10
F15
sI11
F15
sI12
F15
sI13
F18
sI14
F20
sI15
F14
sI16
F33
sa(dp716
I1
F18
sI2
F12
sI3
F10
sI4
F28
sI5
F14
sI6
F12
sI7
F6
sI8
F21
sI9
F13
sI10
F9
sI11
F16
sI12
F22
sI13
F23
sI14
F20
sI15
F28
sI16
F36
sa(dp717
I1
F88
sI2
F44
sI3
F65
sI4
F68
sI5
F50
sI6
F21
sI7
F34
sI8
F33
sI9
F75
sI10
F37
sI11
F63
sI12
F44
sI13
F52
sI14
F36
sI15
F57
sI16
F79
sa(dp718
I1
F162
sI2
F93
sI3
F95
sI4
F140
sI5
F124
sI6
F56
sI7
F52
sI8
F92
sI9
F93
sI10
F74
sI11
F86
sI12
F96
sI13
F110
sI14
F101
sI15
F117
sI16
F190
sa(dp719
I1
F116
sI2
F64
sI3
F74
sI4
F74
sI5
F73
sI6
F38
sI7
F30
sI8
F65
sI9
F84
sI10
F46
sI11
F51
sI12
F47
sI13
F55
sI14
F58
sI15
F73
sI16
F92
sa(dp720
I1
F144
sI2
F75
sI3
F78
sI4
F96
sI5
F84
sI6
F40
sI7
F38
sI8
F73
sI9
F82
sI10
F45
sI11
F60
sI12
F73
sI13
F83
sI14
F75
sI15
F84
sI16
F135
sa(dp721
I1
F115
sI2
F56
sI3
F80
sI4
F74
sI5
F69
sI6
F45
sI7
F30
sI8
F43
sI9
F79
sI10
F42
sI11
F50
sI12
F60
sI13
F62
sI14
F44
sI15
F71
sI16
F94
sa(dp722
I1
F20
sI2
F17
sI3
F6
sI4
F36
sI5
F21
sI6
F17
sI7
F9
sI8
F36
sI9
F7
sI10
F11
sI11
F8
sI12
F15
sI13
F31
sI14
F38
sI15
F18
sI16
F63
sa(dp723
I1
F222
sI2
F84
sI3
F98
sI4
F126
sI5
F86
sI6
F38
sI7
F40
sI8
F49
sI9
F117
sI10
F36
sI11
F35
sI12
F45
sI13
F105
sI14
F55
sI15
F60
sI16
F84
sa(dp724
I1
F83
sI2
F35
sI3
F58
sI4
F81
sI5
F40
sI6
F30
sI7
F22
sI8
F60
sI9
F52
sI10
F39
sI11
F49
sI12
F57
sI13
F82
sI14
F48
sI15
F68
sI16
F133
sa(dp725
I1
F123
sI2
F98
sI3
F91
sI4
F108
sI5
F115
sI6
F86
sI7
F47
sI8
F77
sI9
F101
sI10
F67
sI11
F69
sI12
F99
sI13
F80
sI14
F74
sI15
F130
sI16
F118
sa(dp726
I1
F349
sI2
F145
sI3
F158
sI4
F231
sI5
F170
sI6
F112
sI7
F71
sI8
F136
sI9
F207
sI10
F101
sI11
F130
sI12
F124
sI13
F157
sI14
F131
sI15
F203
sI16
F215
sa(dp727
I1
F98
sI2
F76
sI3
F75
sI4
F127
sI5
F79
sI6
F52
sI7
F42
sI8
F78
sI9
F84
sI10
F53
sI11
F82
sI12
F94
sI13
F115
sI14
F70
sI15
F114
sI16
F159
sa(dp728
I1
F161
sI2
F79
sI3
F107
sI4
F170
sI5
F115
sI6
F67
sI7
F52
sI8
F85
sI9
F102
sI10
F71
sI11
F81
sI12
F118
sI13
F138
sI14
F102
sI15
F133
sI16
F224
sa(dp729
I1
F451
sI2
F202
sI3
F212
sI4
F313
sI5
F253
sI6
F121
sI7
F83
sI8
F155
sI9
F248
sI10
F109
sI11
F110
sI12
F141
sI13
F226
sI14
F180
sI15
F203
sI16
F280
sa(dp730
I1
F137
sI2
F92
sI3
F85
sI4
F122
sI5
F93
sI6
F55
sI7
F49
sI8
F88
sI9
F106
sI10
F69
sI11
F62
sI12
F53
sI13
F99
sI14
F69
sI15
F95
sI16
F124
sa(dp731
I1
F63
sI2
F25
sI3
F37
sI4
F60
sI5
F33
sI6
F16
sI7
F18
sI8
F25
sI9
F39
sI10
F27
sI11
F36
sI12
F27
sI13
F50
sI14
F24
sI15
F38
sI16
F65
sa(dp732
I1
F61
sI2
F28
sI3
F37
sI4
F47
sI5
F42
sI6
F26
sI7
F16
sI8
F36
sI9
F36
sI10
F26
sI11
F27
sI12
F36
sI13
F33
sI14
F40
sI15
F46
sI16
F58
sa(dp733
I1
F84
sI2
F29
sI3
F49
sI4
F43
sI5
F48
sI6
F13
sI7
F11
sI8
F23
sI9
F43
sI10
F16
sI11
F29
sI12
F32
sI13
F30
sI14
F37
sI15
F31
sI16
F35
sa(dp734
I1
F301
sI2
F207
sI3
F167
sI4
F315
sI5
F277
sI6
F119
sI7
F102
sI8
F204
sI9
F187
sI10
F112
sI11
F125
sI12
F161
sI13
F225
sI14
F264
sI15
F191
sI16
F341
sa(dp735
I1
F212
sI2
F101
sI3
F111
sI4
F173
sI5
F123
sI6
F77
sI7
F56
sI8
F90
sI9
F120
sI10
F52
sI11
F50
sI12
F77
sI13
F142
sI14
F116
sI15
F82
sI16
F187
sa(dp736
I1
F64
sI2
F24
sI3
F27
sI4
F58
sI5
F25
sI6
F30
sI7
F14
sI8
F36
sI9
F34
sI10
F19
sI11
F20
sI12
F26
sI13
F49
sI14
F32
sI15
F39
sI16
F71
sa(dp737
I1
F425
sI2
F183
sI3
F247
sI4
F284
sI5
F217
sI6
F136
sI7
F94
sI8
F173
sI9
F279
sI10
F112
sI11
F144
sI12
F163
sI13
F218
sI14
F189
sI15
F213
sI16
F307
sa(dp738
I1
F29
sI2
F21
sI3
F11
sI4
F29
sI5
F18
sI6
F13
sI7
F9
sI8
F16
sI9
F23
sI10
F6
sI11
F20
sI12
F16
sI13
F20
sI14
F16
sI15
F25
sI16
F25
sa(dp739
I1
F112
sI2
F68
sI3
F51
sI4
F73
sI5
F65
sI6
F23
sI7
F27
sI8
F56
sI9
F59
sI10
F38
sI11
F33
sI12
F30
sI13
F67
sI14
F42
sI15
F50
sI16
F81
sa(dp740
I1
F566
sI2
F224
sI3
F249
sI4
F383
sI5
F279
sI6
F138
sI7
F88
sI8
F201
sI9
F286
sI10
F124
sI11
F128
sI12
F123
sI13
F291
sI14
F220
sI15
F196
sI16
F346
sa(dp741
I1
F176
sI2
F67
sI3
F85
sI4
F134
sI5
F97
sI6
F57
sI7
F39
sI8
F48
sI9
F111
sI10
F49
sI11
F53
sI12
F52
sI13
F78
sI14
F68
sI15
F88
sI16
F122
sa(dp742
I1
F157
sI2
F69
sI3
F58
sI4
F89
sI5
F70
sI6
F43
sI7
F29
sI8
F50
sI9
F67
sI10
F33
sI11
F43
sI12
F41
sI13
F79
sI14
F47
sI15
F54
sI16
F106
sa(dp743
I1
F140
sI2
F107
sI3
F62
sI4
F99
sI5
F102
sI6
F66
sI7
F52
sI8
F76
sI9
F94
sI10
F42
sI11
F59
sI12
F92
sI13
F72
sI14
F81
sI15
F114
sI16
F122
sa(dp744
I1
F117
sI2
F53
sI3
F64
sI4
F84
sI5
F65
sI6
F44
sI7
F22
sI8
F61
sI9
F74
sI10
F37
sI11
F41
sI12
F52
sI13
F61
sI14
F58
sI15
F78
sI16
F106
sa(dp745
I1
F145
sI2
F81
sI3
F99
sI4
F173
sI5
F108
sI6
F63
sI7
F54
sI8
F125
sI9
F107
sI10
F84
sI11
F103
sI12
F125
sI13
F137
sI14
F122
sI15
F164
sI16
F192
sa(dp746
I1
F186
sI2
F66
sI3
F86
sI4
F123
sI5
F90
sI6
F39
sI7
F24
sI8
F50
sI9
F96
sI10
F42
sI11
F62
sI12
F51
sI13
F89
sI14
F56
sI15
F79
sI16
F102
sa(dp747
I1
F133
sI2
F48
sI3
F54
sI4
F91
sI5
F55
sI6
F24
sI7
F27
sI8
F37
sI9
F67
sI10
F21
sI11
F38
sI12
F58
sI13
F71
sI14
F50
sI15
F65
sI16
F98
sa(dp748
I1
F265
sI2
F120
sI3
F136
sI4
F177
sI5
F126
sI6
F70
sI7
F60
sI8
F119
sI9
F158
sI10
F66
sI11
F66
sI12
F101
sI13
F148
sI14
F119
sI15
F130
sI16
F207
sa(dp749
I1
F205
sI2
F110
sI3
F118
sI4
F228
sI5
F148
sI6
F99
sI7
F65
sI8
F128
sI9
F136
sI10
F72
sI11
F88
sI12
F130
sI13
F172
sI14
F159
sI15
F155
sI16
F226
sa(dp750
I1
F144
sI2
F63
sI3
F66
sI4
F84
sI5
F81
sI6
F43
sI7
F25
sI8
F58
sI9
F55
sI10
F45
sI11
F38
sI12
F45
sI13
F76
sI14
F56
sI15
F55
sI16
F74
sa(dp751
I1
F144
sI2
F46
sI3
F90
sI4
F54
sI5
F45
sI6
F24
sI7
F32
sI8
F32
sI9
F104
sI10
F32
sI11
F41
sI12
F25
sI13
F40
sI14
F31
sI15
F40
sI16
F39
sa(dp752
I1
F107
sI2
F23
sI3
F52
sI4
F63
sI5
F28
sI6
F15
sI7
F17
sI8
F22
sI9
F69
sI10
F22
sI11
F32
sI12
F29
sI13
F41
sI14
F22
sI15
F51
sI16
F46
sa(dp753
I1
F42
sI2
F22
sI3
F31
sI4
F43
sI5
F30
sI6
F6
sI7
F8
sI8
F22
sI9
F36
sI10
F15
sI11
F31
sI12
F19
sI13
F30
sI14
F23
sI15
F31
sI16
F32
sa(dp754
I1
F135
sI2
F75
sI3
F97
sI4
F113
sI5
F86
sI6
F53
sI7
F40
sI8
F65
sI9
F109
sI10
F59
sI11
F56
sI12
F65
sI13
F90
sI14
F57
sI15
F96
sI16
F104
sa(dp755
I1
F53
sI2
F27
sI3
F25
sI4
F87
sI5
F47
sI6
F21
sI7
F16
sI8
F41
sI9
F20
sI10
F29
sI11
F33
sI12
F51
sI13
F72
sI14
F48
sI15
F59
sI16
F113
sa(dp756
I1
F174
sI2
F104
sI3
F101
sI4
F148
sI5
F120
sI6
F68
sI7
F61
sI8
F104
sI9
F104
sI10
F68
sI11
F70
sI12
F101
sI13
F129
sI14
F113
sI15
F111
sI16
F158
sa(dp757
I1
F1839
sI2
F796
sI3
F958
sI4
F1299
sI5
F873
sI6
F489
sI7
F414
sI8
F791
sI9
F1186
sI10
F503
sI11
F571
sI12
F637
sI13
F994
sI14
F779
sI15
F954
sI16
F1411
sa(dp758
I1
F159
sI2
F72
sI3
F75
sI4
F167
sI5
F106
sI6
F52
sI7
F54
sI8
F85
sI9
F84
sI10
F63
sI11
F66
sI12
F108
sI13
F123
sI14
F110
sI15
F127
sI16
F254
sa(dp759
I1
F73
sI2
F63
sI3
F44
sI4
F102
sI5
F83
sI6
F64
sI7
F34
sI8
F79
sI9
F51
sI10
F52
sI11
F48
sI12
F73
sI13
F75
sI14
F81
sI15
F98
sI16
F165
sa(dp760
I1
F211
sI2
F107
sI3
F109
sI4
F168
sI5
F110
sI6
F52
sI7
F54
sI8
F103
sI9
F138
sI10
F61
sI11
F70
sI12
F77
sI13
F136
sI14
F99
sI15
F113
sI16
F185
sa(dp761
I1
F151
sI2
F78
sI3
F82
sI4
F114
sI5
F102
sI6
F48
sI7
F44
sI8
F66
sI9
F92
sI10
F44
sI11
F46
sI12
F57
sI13
F80
sI14
F90
sI15
F67
sI16
F89
sa(dp762
I1
F87
sI2
F37
sI3
F50
sI4
F38
sI5
F37
sI6
F15
sI7
F12
sI8
F25
sI9
F54
sI10
F14
sI11
F23
sI12
F25
sI13
F34
sI14
F23
sI15
F31
sI16
F31
sa(dp763
I1
F115
sI2
F52
sI3
F90
sI4
F82
sI5
F68
sI6
F26
sI7
F22
sI8
F52
sI9
F87
sI10
F41
sI11
F35
sI12
F45
sI13
F69
sI14
F49
sI15
F61
sI16
F96
sa(dp764
I1
F295
sI2
F152
sI3
F164
sI4
F230
sI5
F185
sI6
F85
sI7
F68
sI8
F166
sI9
F170
sI10
F110
sI11
F120
sI12
F143
sI13
F191
sI14
F157
sI15
F191
sI16
F299
sa(dp765
I1
F188
sI2
F95
sI3
F115
sI4
F127
sI5
F100
sI6
F58
sI7
F43
sI8
F120
sI9
F121
sI10
F78
sI11
F110
sI12
F89
sI13
F116
sI14
F90
sI15
F130
sI16
F198
sa(dp766
I1
F155
sI2
F43
sI3
F86
sI4
F88
sI5
F65
sI6
F40
sI7
F34
sI8
F39
sI9
F94
sI10
F49
sI11
F48
sI12
F44
sI13
F58
sI14
F46
sI15
F67
sI16
F52
sa(dp767
I1
F29
sI2
F30
sI3
F34
sI4
F59
sI5
F47
sI6
F28
sI7
F29
sI8
F63
sI9
F39
sI10
F24
sI11
F14
sI12
F47
sI13
F37
sI14
F85
sI15
F47
sI16
F151
sa(dp768
I1
F92
sI2
F48
sI3
F55
sI4
F57
sI5
F39
sI6
F16
sI7
F25
sI8
F34
sI9
F68
sI10
F24
sI11
F45
sI12
F52
sI13
F53
sI14
F26
sI15
F64
sI16
F74
sa(dp769
I1
F44
sI2
F19
sI3
F25
sI4
F30
sI5
F39
sI6
F21
sI7
F5
sI8
F17
sI9
F20
sI10
F17
sI11
F17
sI12
F25
sI13
F14
sI14
F25
sI15
F33
sI16
F37
sa(dp770
I1
F363
sI2
F167
sI3
F225
sI4
F305
sI5
F200
sI6
F105
sI7
F83
sI8
F155
sI9
F255
sI10
F121
sI11
F135
sI12
F154
sI13
F241
sI14
F150
sI15
F223
sI16
F298
sa(dp771
I1
F118
sI2
F102
sI3
F80
sI4
F145
sI5
F99
sI6
F71
sI7
F60
sI8
F110
sI9
F101
sI10
F79
sI11
F108
sI12
F109
sI13
F127
sI14
F88
sI15
F149
sI16
F185
sa(dp772
I1
F150
sI2
F60
sI3
F83
sI4
F105
sI5
F57
sI6
F37
sI7
F31
sI8
F61
sI9
F102
sI10
F30
sI11
F55
sI12
F54
sI13
F89
sI14
F59
sI15
F72
sI16
F116
sa(dp773
I1
F122
sI2
F62
sI3
F63
sI4
F110
sI5
F78
sI6
F27
sI7
F27
sI8
F66
sI9
F67
sI10
F40
sI11
F54
sI12
F45
sI13
F90
sI14
F69
sI15
F62
sI16
F103
sa(dp774
I1
F123
sI2
F49
sI3
F60
sI4
F80
sI5
F53
sI6
F35
sI7
F31
sI8
F38
sI9
F72
sI10
F31
sI11
F22
sI12
F54
sI13
F64
sI14
F42
sI15
F66
sI16
F79
sa(dp775
I1
F213
sI2
F146
sI3
F126
sI4
F227
sI5
F143
sI6
F87
sI7
F85
sI8
F96
sI9
F206
sI10
F77
sI11
F108
sI12
F88
sI13
F150
sI14
F101
sI15
F160
sI16
F179
sa(dp776
I1
F157
sI2
F102
sI3
F89
sI4
F110
sI5
F99
sI6
F39
sI7
F43
sI8
F84
sI9
F102
sI10
F55
sI11
F60
sI12
F70
sI13
F99
sI14
F69
sI15
F96
sI16
F118
sa(dp777
I1
F99
sI2
F43
sI3
F56
sI4
F92
sI5
F52
sI6
F33
sI7
F20
sI8
F42
sI9
F71
sI10
F24
sI11
F52
sI12
F52
sI13
F67
sI14
F47
sI15
F72
sI16
F100
sa(dp778
I1
F238
sI2
F149
sI3
F145
sI4
F205
sI5
F162
sI6
F103
sI7
F85
sI8
F130
sI9
F188
sI10
F95
sI11
F133
sI12
F112
sI13
F148
sI14
F133
sI15
F166
sI16
F212
sa(dp779
I1
F174
sI2
F59
sI3
F97
sI4
F155
sI5
F83
sI6
F52
sI7
F39
sI8
F59
sI9
F121
sI10
F53
sI11
F68
sI12
F69
sI13
F107
sI14
F69
sI15
F107
sI16
F142
sa(dp780
I1
F154
sI2
F77
sI3
F102
sI4
F117
sI5
F86
sI6
F55
sI7
F33
sI8
F54
sI9
F123
sI10
F49
sI11
F62
sI12
F56
sI13
F87
sI14
F47
sI15
F93
sI16
F90
sa(dp781
I1
F167
sI2
F116
sI3
F121
sI4
F174
sI5
F121
sI6
F74
sI7
F62
sI8
F119
sI9
F151
sI10
F88
sI11
F115
sI12
F108
sI13
F139
sI14
F98
sI15
F164
sI16
F186
sa(dp782
I1
F61
sI2
F25
sI3
F35
sI4
F24
sI5
F26
sI6
F17
sI7
F7
sI8
F20
sI9
F34
sI10
F8
sI11
F18
sI12
F14
sI13
F23
sI14
F20
sI15
F15
sI16
F18
sa(dp783
I1
F165
sI2
F78
sI3
F83
sI4
F154
sI5
F112
sI6
F69
sI7
F43
sI8
F106
sI9
F87
sI10
F73
sI11
F87
sI12
F88
sI13
F116
sI14
F110
sI15
F122
sI16
F197
sa(dp784
I1
F222
sI2
F114
sI3
F110
sI4
F157
sI5
F140
sI6
F83
sI7
F61
sI8
F95
sI9
F126
sI10
F79
sI11
F59
sI12
F63
sI13
F115
sI14
F103
sI15
F97
sI16
F110
sa(dp785
I1
F214
sI2
F112
sI3
F113
sI4
F137
sI5
F136
sI6
F58
sI7
F52
sI8
F85
sI9
F141
sI10
F67
sI11
F57
sI12
F62
sI13
F85
sI14
F94
sI15
F105
sI16
F110
sa(dp786
I1
F294
sI2
F93
sI3
F146
sI4
F187
sI5
F117
sI6
F63
sI7
F43
sI8
F93
sI9
F160
sI10
F74
sI11
F90
sI12
F90
sI13
F149
sI14
F86
sI15
F135
sI16
F183
sa(dp787
I1
F268
sI2
F141
sI3
F169
sI4
F278
sI5
F175
sI6
F97
sI7
F79
sI8
F123
sI9
F224
sI10
F118
sI11
F120
sI12
F120
sI13
F189
sI14
F118
sI15
F214
sI16
F278
sa(dp788
I1
F56
sI2
F18
sI3
F18
sI4
F40
sI5
F21
sI6
F12
sI7
F7
sI8
F23
sI9
F14
sI10
F14
sI11
F22
sI12
F27
sI13
F41
sI14
F19
sI15
F30
sI16
F41
sa(dp789
I1
F511
sI2
F194
sI3
F245
sI4
F308
sI5
F217
sI6
F94
sI7
F95
sI8
F126
sI9
F333
sI10
F101
sI11
F122
sI12
F117
sI13
F196
sI14
F143
sI15
F212
sI16
F190
sa(dp790
I1
F37
sI2
F9
sI3
F21
sI4
F36
sI5
F15
sI6
F5
sI7
F13
sI8
F17
sI9
F23
sI10
F9
sI11
F14
sI12
F20
sI13
F27
sI14
F27
sI15
F19
sI16
F52
sa(dp791
I1
F114
sI2
F83
sI3
F80
sI4
F101
sI5
F92
sI6
F57
sI7
F52
sI8
F53
sI9
F102
sI10
F44
sI11
F49
sI12
F56
sI13
F70
sI14
F70
sI15
F70
sI16
F80
sa(dp792
I1
F163
sI2
F61
sI3
F120
sI4
F94
sI5
F77
sI6
F31
sI7
F26
sI8
F41
sI9
F121
sI10
F44
sI11
F67
sI12
F59
sI13
F77
sI14
F39
sI15
F78
sI16
F84
sa(dp793
I1
F169
sI2
F70
sI3
F113
sI4
F120
sI5
F90
sI6
F51
sI7
F41
sI8
F56
sI9
F135
sI10
F49
sI11
F70
sI12
F51
sI13
F77
sI14
F68
sI15
F82
sI16
F82
sa(dp794
I1
F143
sI2
F63
sI3
F73
sI4
F98
sI5
F66
sI6
F45
sI7
F40
sI8
F44
sI9
F90
sI10
F38
sI11
F47
sI12
F58
sI13
F77
sI14
F49
sI15
F74
sI16
F103
sa(dp795
I1
F38
sI2
F15
sI3
F18
sI4
F18
sI5
F15
sI6
F6
sI7
F4
sI8
F11
sI9
F23
sI10
F7
sI11
F13
sI12
F9
sI13
F12
sI14
F8
sI15
F18
sI16
F11
sa(dp796
I1
F103
sI2
F43
sI3
F56
sI4
F84
sI5
F58
sI6
F27
sI7
F31
sI8
F39
sI9
F73
sI10
F43
sI11
F49
sI12
F48
sI13
F52
sI14
F42
sI15
F77
sI16
F77
sa(dp797
I1
F46
sI2
F44
sI3
F42
sI4
F54
sI5
F53
sI6
F30
sI7
F21
sI8
F37
sI9
F48
sI10
F33
sI11
F37
sI12
F36
sI13
F39
sI14
F34
sI15
F54
sI16
F58
sa(dp798
I1
F121
sI2
F79
sI3
F81
sI4
F137
sI5
F99
sI6
F64
sI7
F47
sI8
F98
sI9
F99
sI10
F57
sI11
F110
sI12
F123
sI13
F98
sI14
F108
sI15
F152
sI16
F193
sa(dp799
I1
F243
sI2
F141
sI3
F184
sI4
F212
sI5
F162
sI6
F83
sI7
F65
sI8
F125
sI9
F197
sI10
F94
sI11
F134
sI12
F111
sI13
F178
sI14
F117
sI15
F153
sI16
F196
sa(dp800
I1
F69
sI2
F37
sI3
F50
sI4
F58
sI5
F35
sI6
F21
sI7
F14
sI8
F30
sI9
F63
sI10
F17
sI11
F39
sI12
F25
sI13
F47
sI14
F25
sI15
F41
sI16
F59
sa(dp801
I1
F293
sI2
F131
sI3
F141
sI4
F182
sI5
F144
sI6
F85
sI7
F62
sI8
F107
sI9
F144
sI10
F65
sI11
F77
sI12
F104
sI13
F165
sI14
F117
sI15
F111
sI16
F184
sa(dp802
I1
F162
sI2
F70
sI3
F131
sI4
F114
sI5
F101
sI6
F65
sI7
F45
sI8
F90
sI9
F127
sI10
F75
sI11
F103
sI12
F125
sI13
F87
sI14
F91
sI15
F151
sI16
F153
sa(dp803
I1
F388
sI2
F164
sI3
F233
sI4
F258
sI5
F194
sI6
F123
sI7
F95
sI8
F148
sI9
F281
sI10
F124
sI11
F172
sI12
F165
sI13
F180
sI14
F149
sI15
F242
sI16
F253
sa(dp804
I1
F161
sI2
F74
sI3
F89
sI4
F179
sI5
F96
sI6
F63
sI7
F57
sI8
F90
sI9
F102
sI10
F81
sI11
F82
sI12
F86
sI13
F143
sI14
F88
sI15
F124
sI16
F187
sa(dp805
I1
F153
sI2
F72
sI3
F77
sI4
F119
sI5
F83
sI6
F46
sI7
F30
sI8
F77
sI9
F84
sI10
F45
sI11
F58
sI12
F58
sI13
F101
sI14
F73
sI15
F80
sI16
F124
sa(dp806
I1
F152
sI2
F81
sI3
F75
sI4
F128
sI5
F80
sI6
F54
sI7
F40
sI8
F69
sI9
F108
sI10
F44
sI11
F65
sI12
F57
sI13
F96
sI14
F64
sI15
F94
sI16
F120
sa(dp807
I1
F112
sI2
F33
sI3
F69
sI4
F50
sI5
F45
sI6
F11
sI7
F19
sI8
F17
sI9
F71
sI10
F26
sI11
F34
sI12
F26
sI13
F36
sI14
F22
sI15
F35
sI16
F30
sa(dp808
I1
F82
sI2
F40
sI3
F49
sI4
F77
sI5
F49
sI6
F37
sI7
F25
sI8
F50
sI9
F46
sI10
F40
sI11
F39
sI12
F50
sI13
F71
sI14
F44
sI15
F62
sI16
F96
sa(dp809
I1
F118
sI2
F47
sI3
F87
sI4
F72
sI5
F62
sI6
F26
sI7
F18
sI8
F29
sI9
F90
sI10
F29
sI11
F31
sI12
F32
sI13
F54
sI14
F33
sI15
F46
sI16
F54
sa(dp810
I1
F34
sI2
F16
sI3
F20
sI4
F32
sI5
F28
sI6
F11
sI7
F6
sI8
F20
sI9
F17
sI10
F9
sI11
F7
sI12
F18
sI13
F23
sI14
F29
sI15
F18
sI16
F32
sa(dp811
I1
F97
sI2
F65
sI3
F68
sI4
F96
sI5
F71
sI6
F61
sI7
F38
sI8
F68
sI9
F89
sI10
F51
sI11
F49
sI12
F53
sI13
F68
sI14
F61
sI15
F88
sI16
F94
sa(dp812
I1
F258
sI2
F90
sI3
F149
sI4
F155
sI5
F122
sI6
F63
sI7
F52
sI8
F85
sI9
F148
sI10
F81
sI11
F81
sI12
F103
sI13
F123
sI14
F88
sI15
F131
sI16
F161
sa(dp813
I1
F312
sI2
F103
sI3
F143
sI4
F144
sI5
F92
sI6
F39
sI7
F52
sI8
F82
sI9
F180
sI10
F58
sI11
F68
sI12
F66
sI13
F118
sI14
F65
sI15
F109
sI16
F112
sa(dp814
I1
F158
sI2
F78
sI3
F97
sI4
F120
sI5
F89
sI6
F56
sI7
F31
sI8
F52
sI9
F106
sI10
F43
sI11
F61
sI12
F65
sI13
F100
sI14
F51
sI15
F86
sI16
F92
sa(dp815
I1
F205
sI2
F95
sI3
F120
sI4
F163
sI5
F122
sI6
F50
sI7
F47
sI8
F87
sI9
F157
sI10
F73
sI11
F98
sI12
F82
sI13
F99
sI14
F88
sI15
F145
sI16
F174
sa(dp816
I1
F80
sI2
F30
sI3
F42
sI4
F70
sI5
F40
sI6
F37
sI7
F20
sI8
F36
sI9
F56
sI10
F27
sI11
F40
sI12
F29
sI13
F45
sI14
F39
sI15
F51
sI16
F62
sa(dp817
I1
F61
sI2
F37
sI3
F44
sI4
F44
sI5
F51
sI6
F27
sI7
F19
sI8
F28
sI9
F42
sI10
F31
sI11
F27
sI12
F32
sI13
F31
sI14
F30
sI15
F43
sI16
F30
sa(dp818
I1
F100
sI2
F60
sI3
F66
sI4
F112
sI5
F80
sI6
F43
sI7
F42
sI8
F89
sI9
F75
sI10
F54
sI11
F74
sI12
F67
sI13
F83
sI14
F97
sI15
F88
sI16
F117
sa(dp819
I1
F244
sI2
F70
sI3
F137
sI4
F178
sI5
F102
sI6
F29
sI7
F30
sI8
F72
sI9
F159
sI10
F50
sI11
F60
sI12
F78
sI13
F123
sI14
F84
sI15
F121
sI16
F162
sa(dp820
I1
F38
sI2
F21
sI3
F22
sI4
F33
sI5
F24
sI6
F10
sI7
F9
sI8
F31
sI9
F15
sI10
F18
sI11
F18
sI12
F18
sI13
F37
sI14
F25
sI15
F20
sI16
F64
sa(dp821
I1
F332
sI2
F157
sI3
F171
sI4
F292
sI5
F177
sI6
F77
sI7
F91
sI8
F157
sI9
F210
sI10
F98
sI11
F140
sI12
F167
sI13
F232
sI14
F170
sI15
F214
sI16
F306
sa(dp822
I1
F238
sI2
F114
sI3
F123
sI4
F226
sI5
F133
sI6
F62
sI7
F61
sI8
F88
sI9
F161
sI10
F63
sI11
F95
sI12
F102
sI13
F169
sI14
F105
sI15
F142
sI16
F209
sa(dp823
I1
F112
sI2
F53
sI3
F69
sI4
F86
sI5
F64
sI6
F35
sI7
F30
sI8
F61
sI9
F73
sI10
F38
sI11
F70
sI12
F76
sI13
F71
sI14
F64
sI15
F88
sI16
F127
sa(dp824
I1
F152
sI2
F63
sI3
F77
sI4
F82
sI5
F82
sI6
F62
sI7
F29
sI8
F62
sI9
F81
sI10
F51
sI11
F49
sI12
F60
sI13
F59
sI14
F59
sI15
F86
sI16
F110
sa(dp825
I1
F293
sI2
F96
sI3
F141
sI4
F166
sI5
F111
sI6
F68
sI7
F53
sI8
F121
sI9
F154
sI10
F75
sI11
F84
sI12
F71
sI13
F138
sI14
F114
sI15
F106
sI16
F167
sa(dp826
I1
F82
sI2
F46
sI3
F55
sI4
F110
sI5
F62
sI6
F28
sI7
F22
sI8
F61
sI9
F66
sI10
F36
sI11
F42
sI12
F52
sI13
F83
sI14
F63
sI15
F77
sI16
F111
sa(dp827
I1
F433
sI2
F175
sI3
F275
sI4
F305
sI5
F222
sI6
F115
sI7
F85
sI8
F160
sI9
F292
sI10
F123
sI11
F152
sI12
F162
sI13
F241
sI14
F169
sI15
F217
sI16
F326
sa(dp828
I1
F215
sI2
F86
sI3
F98
sI4
F146
sI5
F106
sI6
F37
sI7
F31
sI8
F61
sI9
F118
sI10
F42
sI11
F81
sI12
F78
sI13
F106
sI14
F70
sI15
F109
sI16
F111
sa(dp829
I1
F136
sI2
F57
sI3
F86
sI4
F92
sI5
F71
sI6
F43
sI7
F31
sI8
F48
sI9
F80
sI10
F41
sI11
F50
sI12
F52
sI13
F84
sI14
F52
sI15
F56
sI16
F70
sa(dp830
I1
F260
sI2
F115
sI3
F151
sI4
F166
sI5
F133
sI6
F82
sI7
F49
sI8
F106
sI9
F169
sI10
F60
sI11
F87
sI12
F108
sI13
F130
sI14
F113
sI15
F137
sI16
F213
sa(dp831
I1
F238
sI2
F108
sI3
F169
sI4
F188
sI5
F137
sI6
F100
sI7
F76
sI8
F141
sI9
F170
sI10
F120
sI11
F114
sI12
F111
sI13
F158
sI14
F126
sI15
F156
sI16
F192
sa(dp832
I1
F16
sI2
F14
sI3
F6
sI4
F20
sI5
F14
sI6
F13
sI7
F5
sI8
F14
sI9
F10
sI10
F9
sI11
F11
sI12
F7
sI13
F16
sI14
F10
sI15
F15
sI16
F19
sa(dp833
I1
F77
sI2
F29
sI3
F38
sI4
F66
sI5
F41
sI6
F14
sI7
F13
sI8
F33
sI9
F45
sI10
F27
sI11
F14
sI12
F32
sI13
F46
sI14
F31
sI15
F53
sI16
F50
sa(dp834
I1
F41
sI2
F14
sI3
F20
sI4
F18
sI5
F17
sI6
F11
sI7
F9
sI8
F7
sI9
F24
sI10
F9
sI11
F16
sI12
F13
sI13
F10
sI14
F10
sI15
F18
sI16
F12
sa(dp835
I1
F144
sI2
F66
sI3
F92
sI4
F96
sI5
F71
sI6
F37
sI7
F32
sI8
F58
sI9
F105
sI10
F48
sI11
F81
sI12
F70
sI13
F78
sI14
F47
sI15
F99
sI16
F99
sa(dp836
I1
F181
sI2
F123
sI3
F117
sI4
F186
sI5
F145
sI6
F94
sI7
F52
sI8
F114
sI9
F126
sI10
F70
sI11
F84
sI12
F94
sI13
F155
sI14
F118
sI15
F121
sI16
F246
sa(dp837
I1
F161
sI2
F63
sI3
F69
sI4
F90
sI5
F64
sI6
F28
sI7
F23
sI8
F59
sI9
F82
sI10
F29
sI11
F34
sI12
F47
sI13
F76
sI14
F54
sI15
F66
sI16
F98
sa(dp838
I1
F61
sI2
F16
sI3
F24
sI4
F49
sI5
F15
sI6
F3
sI7
F12
sI8
F18
sI9
F29
sI10
F13
sI11
F27
sI12
F27
sI13
F44
sI14
F16
sI15
F33
sI16
F39
sa(dp839
I1
F304
sI2
F124
sI3
F161
sI4
F232
sI5
F161
sI6
F86
sI7
F51
sI8
F103
sI9
F199
sI10
F64
sI11
F89
sI12
F86
sI13
F156
sI14
F127
sI15
F137
sI16
F176
sa(dp840
I1
F185
sI2
F73
sI3
F108
sI4
F135
sI5
F93
sI6
F53
sI7
F36
sI8
F77
sI9
F118
sI10
F55
sI11
F80
sI12
F92
sI13
F104
sI14
F78
sI15
F122
sI16
F157
sa(dp841
I1
F171
sI2
F82
sI3
F84
sI4
F151
sI5
F84
sI6
F55
sI7
F43
sI8
F90
sI9
F118
sI10
F46
sI11
F69
sI12
F77
sI13
F114
sI14
F89
sI15
F115
sI16
F169
sa(dp842
I1
F298
sI2
F120
sI3
F159
sI4
F220
sI5
F133
sI6
F65
sI7
F54
sI8
F103
sI9
F196
sI10
F77
sI11
F78
sI12
F93
sI13
F170
sI14
F93
sI15
F153
sI16
F215
sa(dp843
I1
F128
sI2
F76
sI3
F99
sI4
F129
sI5
F101
sI6
F66
sI7
F44
sI8
F106
sI9
F96
sI10
F64
sI11
F107
sI12
F121
sI13
F106
sI14
F111
sI15
F139
sI16
F182
sa(dp844
I1
F80
sI2
F34
sI3
F37
sI4
F42
sI5
F29
sI6
F18
sI7
F16
sI8
F25
sI9
F47
sI10
F13
sI11
F31
sI12
F29
sI13
F37
sI14
F23
sI15
F36
sI16
F45
sa(dp845
I1
F183
sI2
F81
sI3
F96
sI4
F122
sI5
F98
sI6
F68
sI7
F55
sI8
F69
sI9
F96
sI10
F53
sI11
F69
sI12
F117
sI13
F105
sI14
F88
sI15
F115
sI16
F142
sa(dp846
I1
F125
sI2
F49
sI3
F64
sI4
F94
sI5
F67
sI6
F38
sI7
F21
sI8
F52
sI9
F74
sI10
F42
sI11
F36
sI12
F35
sI13
F66
sI14
F49
sI15
F66
sI16
F83
sa(dp847
I1
F35
sI2
F21
sI3
F24
sI4
F27
sI5
F22
sI6
F13
sI7
F17
sI8
F18
sI9
F29
sI10
F16
sI11
F13
sI12
F13
sI13
F21
sI14
F20
sI15
F17
sI16
F20
sa(dp848
I1
F26
sI2
F10
sI3
F22
sI4
F28
sI5
F16
sI6
F18
sI7
F20
sI8
F24
sI9
F21
sI10
F21
sI11
F17
sI12
F19
sI13
F23
sI14
F29
sI15
F19
sI16
F40
sa(dp849
I1
F324
sI2
F144
sI3
F188
sI4
F244
sI5
F187
sI6
F110
sI7
F64
sI8
F127
sI9
F201
sI10
F93
sI11
F110
sI12
F115
sI13
F188
sI14
F141
sI15
F157
sI16
F221
sa(dp850
I1
F527
sI2
F252
sI3
F255
sI4
F355
sI5
F310
sI6
F159
sI7
F137
sI8
F202
sI9
F295
sI10
F161
sI11
F156
sI12
F159
sI13
F257
sI14
F236
sI15
F223
sI16
F276
sa(dp851
I1
F35
sI2
F16
sI3
F18
sI4
F30
sI5
F19
sI6
F10
sI7
F7
sI8
F14
sI9
F27
sI10
F12
sI11
F15
sI12
F16
sI13
F17
sI14
F12
sI15
F31
sI16
F29
sa(dp852
I1
F69
sI2
F42
sI3
F41
sI4
F51
sI5
F51
sI6
F36
sI7
F20
sI8
F45
sI9
F42
sI10
F34
sI11
F35
sI12
F38
sI13
F41
sI14
F40
sI15
F53
sI16
F78
sa(dp853
I1
F259
sI2
F265
sI3
F203
sI4
F224
sI5
F295
sI6
F191
sI7
F118
sI8
F289
sI9
F160
sI10
F149
sI11
F82
sI12
F236
sI13
F237
sI14
F288
sI15
F224
sI16
F232
sa(dp854
I1
F361
sI2
F120
sI3
F161
sI4
F173
sI5
F156
sI6
F75
sI7
F53
sI8
F98
sI9
F164
sI10
F62
sI11
F67
sI12
F109
sI13
F133
sI14
F125
sI15
F122
sI16
F177
sa(dp855
I1
F146
sI2
F41
sI3
F93
sI4
F69
sI5
F54
sI6
F38
sI7
F22
sI8
F37
sI9
F91
sI10
F31
sI11
F41
sI12
F45
sI13
F58
sI14
F41
sI15
F52
sI16
F75
sa(dp856
I1
F100
sI2
F69
sI3
F70
sI4
F92
sI5
F67
sI6
F39
sI7
F32
sI8
F67
sI9
F76
sI10
F38
sI11
F48
sI12
F56
sI13
F87
sI14
F59
sI15
F69
sI16
F107
sa(dp857
I1
F65
sI2
F33
sI3
F48
sI4
F47
sI5
F39
sI6
F16
sI7
F16
sI8
F32
sI9
F46
sI10
F25
sI11
F29
sI12
F33
sI13
F43
sI14
F29
sI15
F40
sI16
F57
sa(dp858
I1
F104
sI2
F40
sI3
F48
sI4
F49
sI5
F47
sI6
F23
sI7
F17
sI8
F28
sI9
F58
sI10
F21
sI11
F27
sI12
F23
sI13
F32
sI14
F31
sI15
F37
sI16
F48
sa(dp859
I1
F167
sI2
F80
sI3
F88
sI4
F189
sI5
F111
sI6
F55
sI7
F52
sI8
F89
sI9
F110
sI10
F74
sI11
F88
sI12
F103
sI13
F136
sI14
F98
sI15
F147
sI16
F227
sa(dp860
I1
F73
sI2
F36
sI3
F60
sI4
F46
sI5
F40
sI6
F26
sI7
F23
sI8
F26
sI9
F66
sI10
F26
sI11
F26
sI12
F17
sI13
F36
sI14
F27
sI15
F26
sI16
F47
sa(dp861
I1
F56
sI2
F26
sI3
F33
sI4
F27
sI5
F24
sI6
F23
sI7
F17
sI8
F27
sI9
F37
sI10
F23
sI11
F24
sI12
F18
sI13
F25
sI14
F19
sI15
F28
sI16
F25
sa(dp862
I1
F33
sI2
F9
sI3
F9
sI4
F15
sI5
F16
sI6
F10
sI7
F4
sI8
F8
sI9
F9
sI10
F12
sI11
F8
sI12
F11
sI13
F7
sI14
F7
sI15
F20
sI16
F4
sa(dp863
I1
F75
sI2
F68
sI3
F39
sI4
F75
sI5
F66
sI6
F39
sI7
F38
sI8
F76
sI9
F53
sI10
F32
sI11
F42
sI12
F51
sI13
F63
sI14
F80
sI15
F59
sI16
F55
sa(dp864
I1
F352
sI2
F178
sI3
F210
sI4
F249
sI5
F201
sI6
F111
sI7
F93
sI8
F166
sI9
F233
sI10
F105
sI11
F129
sI12
F130
sI13
F202
sI14
F177
sI15
F166
sI16
F239
sa(dp865
I1
F628
sI2
F245
sI3
F347
sI4
F368
sI5
F313
sI6
F178
sI7
F134
sI8
F202
sI9
F410
sI10
F158
sI11
F179
sI12
F162
sI13
F237
sI14
F246
sI15
F249
sI16
F273
sa(dp866
I1
F23
sI2
F25
sI3
F12
sI4
F30
sI5
F25
sI6
F20
sI7
F14
sI8
F38
sI9
F16
sI10
F14
sI11
F19
sI12
F31
sI13
F25
sI14
F38
sI15
F36
sI16
F46
sa(dp867
I1
F155
sI2
F65
sI3
F94
sI4
F116
sI5
F89
sI6
F55
sI7
F40
sI8
F70
sI9
F87
sI10
F54
sI11
F54
sI12
F54
sI13
F98
sI14
F80
sI15
F62
sI16
F115
sa(dp868
I1
F169
sI2
F86
sI3
F67
sI4
F113
sI5
F94
sI6
F57
sI7
F34
sI8
F70
sI9
F85
sI10
F36
sI11
F44
sI12
F57
sI13
F87
sI14
F76
sI15
F77
sI16
F107
sa(dp869
I1
F205
sI2
F94
sI3
F105
sI4
F120
sI5
F100
sI6
F58
sI7
F43
sI8
F100
sI9
F116
sI10
F69
sI11
F60
sI12
F80
sI13
F103
sI14
F80
sI15
F117
sI16
F151
sa(dp870
I1
F56
sI2
F22
sI3
F29
sI4
F36
sI5
F31
sI6
F14
sI7
F11
sI8
F15
sI9
F26
sI10
F16
sI11
F26
sI12
F26
sI13
F30
sI14
F19
sI15
F28
sI16
F24
sa(dp871
I1
F205
sI2
F71
sI3
F96
sI4
F157
sI5
F79
sI6
F37
sI7
F44
sI8
F66
sI9
F122
sI10
F40
sI11
F65
sI12
F83
sI13
F123
sI14
F78
sI15
F105
sI16
F159
sa(dp872
I1
F113
sI2
F71
sI3
F62
sI4
F83
sI5
F89
sI6
F41
sI7
F24
sI8
F73
sI9
F53
sI10
F37
sI11
F30
sI12
F53
sI13
F74
sI14
F78
sI15
F57
sI16
F70
sa(dp873
I1
F111
sI2
F57
sI3
F49
sI4
F67
sI5
F64
sI6
F30
sI7
F14
sI8
F46
sI9
F50
sI10
F27
sI11
F32
sI12
F27
sI13
F59
sI14
F40
sI15
F41
sI16
F84
sa(dp874
I1
F64
sI2
F37
sI3
F66
sI4
F65
sI5
F48
sI6
F27
sI7
F27
sI8
F36
sI9
F64
sI10
F33
sI11
F40
sI12
F41
sI13
F55
sI14
F41
sI15
F46
sI16
F76
sa(dp875
I1
F105
sI2
F48
sI3
F60
sI4
F106
sI5
F77
sI6
F30
sI7
F25
sI8
F47
sI9
F60
sI10
F40
sI11
F57
sI12
F56
sI13
F77
sI14
F61
sI15
F71
sI16
F100
sa(dp876
I1
F49
sI2
F25
sI3
F33
sI4
F45
sI5
F29
sI6
F14
sI7
F18
sI8
F24
sI9
F42
sI10
F23
sI11
F19
sI12
F30
sI13
F32
sI14
F23
sI15
F44
sI16
F56
sa(dp877
I1
F556
sI2
F242
sI3
F291
sI4
F397
sI5
F267
sI6
F140
sI7
F112
sI8
F194
sI9
F333
sI10
F148
sI11
F143
sI12
F187
sI13
F330
sI14
F183
sI15
F265
sI16
F355
sa(dp878
I1
F379
sI2
F205
sI3
F193
sI4
F326
sI5
F221
sI6
F126
sI7
F92
sI8
F169
sI9
F252
sI10
F103
sI11
F124
sI12
F154
sI13
F251
sI14
F174
sI15
F224
sI16
F300
sa(dp879
I1
F101
sI2
F76
sI3
F60
sI4
F84
sI5
F86
sI6
F53
sI7
F35
sI8
F74
sI9
F68
sI10
F53
sI11
F76
sI12
F65
sI13
F65
sI14
F66
sI15
F92
sI16
F143
sa(dp880
I1
F191
sI2
F80
sI3
F106
sI4
F107
sI5
F85
sI6
F27
sI7
F34
sI8
F65
sI9
F117
sI10
F52
sI11
F52
sI12
F54
sI13
F91
sI14
F52
sI15
F83
sI16
F104
sa(dp881
I1
F96
sI2
F63
sI3
F65
sI4
F134
sI5
F82
sI6
F37
sI7
F37
sI8
F84
sI9
F66
sI10
F67
sI11
F92
sI12
F84
sI13
F114
sI14
F73
sI15
F115
sI16
F189
sa(dp882
I1
F246
sI2
F86
sI3
F132
sI4
F161
sI5
F115
sI6
F56
sI7
F42
sI8
F71
sI9
F161
sI10
F51
sI11
F52
sI12
F68
sI13
F102
sI14
F91
sI15
F107
sI16
F152
sa(dp883
I1
F480
sI2
F166
sI3
F230
sI4
F303
sI5
F180
sI6
F84
sI7
F97
sI8
F160
sI9
F282
sI10
F101
sI11
F131
sI12
F142
sI13
F237
sI14
F170
sI15
F198
sI16
F293
sa(dp884
I1
F32
sI2
F12
sI3
F19
sI4
F42
sI5
F22
sI6
F22
sI7
F14
sI8
F51
sI9
F25
sI10
F17
sI11
F13
sI12
F25
sI13
F26
sI14
F58
sI15
F34
sI16
F91
sa(dp885
I1
F94
sI2
F51
sI3
F65
sI4
F80
sI5
F47
sI6
F12
sI7
F35
sI8
F55
sI9
F87
sI10
F40
sI11
F65
sI12
F67
sI13
F61
sI14
F46
sI15
F94
sI16
F76
sa(dp886
I1
F147
sI2
F70
sI3
F100
sI4
F125
sI5
F93
sI6
F49
sI7
F30
sI8
F62
sI9
F113
sI10
F50
sI11
F67
sI12
F66
sI13
F89
sI14
F65
sI15
F99
sI16
F167
sa(dp887
I1
F97
sI2
F35
sI3
F44
sI4
F74
sI5
F47
sI6
F19
sI7
F15
sI8
F32
sI9
F50
sI10
F18
sI11
F40
sI12
F37
sI13
F56
sI14
F41
sI15
F46
sI16
F71
sa(dp888
I1
F138
sI2
F64
sI3
F99
sI4
F119
sI5
F72
sI6
F45
sI7
F38
sI8
F77
sI9
F103
sI10
F60
sI11
F67
sI12
F68
sI13
F107
sI14
F63
sI15
F94
sI16
F119
sa(dp889
I1
F190
sI2
F72
sI3
F109
sI4
F121
sI5
F98
sI6
F54
sI7
F32
sI8
F66
sI9
F109
sI10
F55
sI11
F50
sI12
F71
sI13
F95
sI14
F69
sI15
F94
sI16
F139
sa(dp890
I1
F68
sI2
F26
sI3
F41
sI4
F34
sI5
F22
sI6
F7
sI7
F6
sI8
F17
sI9
F46
sI10
F8
sI11
F28
sI12
F22
sI13
F33
sI14
F11
sI15
F29
sI16
F23
sa(dp891
I1
F199
sI2
F102
sI3
F102
sI4
F176
sI5
F109
sI6
F52
sI7
F54
sI8
F94
sI9
F134
sI10
F50
sI11
F76
sI12
F105
sI13
F137
sI14
F105
sI15
F133
sI16
F192
sa(dp892
I1
F150
sI2
F71
sI3
F103
sI4
F113
sI5
F76
sI6
F51
sI7
F48
sI8
F66
sI9
F115
sI10
F59
sI11
F70
sI12
F90
sI13
F95
sI14
F60
sI15
F114
sI16
F99
sa(dp893
I1
F30
sI2
F22
sI3
F25
sI4
F34
sI5
F23
sI6
F10
sI7
F11
sI8
F36
sI9
F36
sI10
F11
sI11
F14
sI12
F12
sI13
F21
sI14
F37
sI15
F24
sI16
F63
sa(dp894
I1
F46
sI2
F29
sI3
F33
sI4
F58
sI5
F35
sI6
F14
sI7
F16
sI8
F37
sI9
F42
sI10
F19
sI11
F34
sI12
F25
sI13
F42
sI14
F40
sI15
F38
sI16
F93
sa(dp895
I1
F108
sI2
F56
sI3
F75
sI4
F95
sI5
F66
sI6
F48
sI7
F41
sI8
F51
sI9
F90
sI10
F42
sI11
F61
sI12
F78
sI13
F70
sI14
F60
sI15
F94
sI16
F121
sa(dp896
I1
F343
sI2
F136
sI3
F192
sI4
F230
sI5
F172
sI6
F89
sI7
F71
sI8
F107
sI9
F210
sI10
F97
sI11
F108
sI12
F123
sI13
F176
sI14
F117
sI15
F167
sI16
F264
sa(dp897
I1
F227
sI2
F110
sI3
F148
sI4
F178
sI5
F142
sI6
F66
sI7
F58
sI8
F95
sI9
F150
sI10
F66
sI11
F91
sI12
F105
sI13
F144
sI14
F119
sI15
F115
sI16
F215
sa(dp898
I1
F189
sI2
F109
sI3
F104
sI4
F191
sI5
F138
sI6
F76
sI7
F58
sI8
F136
sI9
F111
sI10
F98
sI11
F114
sI12
F133
sI13
F154
sI14
F125
sI15
F181
sI16
F278
sa(dp899
I1
F117
sI2
F58
sI3
F68
sI4
F68
sI5
F64
sI6
F49
sI7
F33
sI8
F57
sI9
F74
sI10
F39
sI11
F48
sI12
F56
sI13
F56
sI14
F57
sI15
F68
sI16
F99
sa(dp900
I1
F36
sI2
F22
sI3
F19
sI4
F45
sI5
F28
sI6
F13
sI7
F9
sI8
F30
sI9
F16
sI10
F11
sI11
F15
sI12
F29
sI13
F41
sI14
F34
sI15
F29
sI16
F47
sa(dp901
I1
F491
sI2
F173
sI3
F242
sI4
F317
sI5
F192
sI6
F77
sI7
F99
sI8
F173
sI9
F285
sI10
F116
sI11
F169
sI12
F157
sI13
F255
sI14
F175
sI15
F217
sI16
F287
sa(dp902
I1
F34
sI2
F9
sI3
F19
sI4
F28
sI5
F20
sI6
F17
sI7
F10
sI8
F32
sI9
F14
sI10
F26
sI11
F11
sI12
F24
sI13
F22
sI14
F27
sI15
F35
sI16
F45
sa(dp903
I1
F57
sI2
F28
sI3
F38
sI4
F50
sI5
F31
sI6
F15
sI7
F11
sI8
F25
sI9
F39
sI10
F19
sI11
F23
sI12
F37
sI13
F46
sI14
F20
sI15
F46
sI16
F51
sa(dp904
I1
F222
sI2
F75
sI3
F110
sI4
F102
sI5
F104
sI6
F56
sI7
F42
sI8
F82
sI9
F106
sI10
F64
sI11
F43
sI12
F55
sI13
F76
sI14
F89
sI15
F74
sI16
F106
sa(dp905
I1
F94
sI2
F48
sI3
F63
sI4
F57
sI5
F53
sI6
F27
sI7
F26
sI8
F43
sI9
F57
sI10
F42
sI11
F55
sI12
F54
sI13
F58
sI14
F32
sI15
F64
sI16
F90
sa(dp906
I1
F168
sI2
F79
sI3
F95
sI4
F116
sI5
F88
sI6
F44
sI7
F45
sI8
F51
sI9
F111
sI10
F47
sI11
F57
sI12
F70
sI13
F91
sI14
F58
sI15
F88
sI16
F136
sa(dp907
I1
F330
sI2
F158
sI3
F183
sI4
F247
sI5
F189
sI6
F104
sI7
F84
sI8
F152
sI9
F222
sI10
F109
sI11
F95
sI12
F156
sI13
F176
sI14
F158
sI15
F221
sI16
F289
sa(dp908
I1
F385
sI2
F238
sI3
F188
sI4
F244
sI5
F260
sI6
F170
sI7
F102
sI8
F167
sI9
F231
sI10
F116
sI11
F135
sI12
F137
sI13
F179
sI14
F175
sI15
F194
sI16
F168
sa(dp909
I1
F30
sI2
F10
sI3
F13
sI4
F18
sI5
F10
sI6
F11
sI7
F10
sI8
F12
sI9
F16
sI10
F9
sI11
F8
sI12
F11
sI13
F15
sI14
F13
sI15
F13
sI16
F18
sa(dp910
I1
F603
sI2
F270
sI3
F307
sI4
F454
sI5
F271
sI6
F158
sI7
F137
sI8
F294
sI9
F368
sI10
F154
sI11
F193
sI12
F235
sI13
F391
sI14
F278
sI15
F314
sI16
F586
sa(dp911
I1
F26
sI2
F23
sI3
F18
sI4
F21
sI5
F30
sI6
F20
sI7
F17
sI8
F26
sI9
F14
sI10
F27
sI11
F13
sI12
F15
sI13
F18
sI14
F23
sI15
F21
sI16
F26
sa(dp912
I1
F60
sI2
F51
sI3
F50
sI4
F52
sI5
F47
sI6
F28
sI7
F28
sI8
F40
sI9
F50
sI10
F30
sI11
F47
sI12
F40
sI13
F55
sI14
F34
sI15
F43
sI16
F31
sa(dp913
I1
F181
sI2
F107
sI3
F107
sI4
F188
sI5
F98
sI6
F51
sI7
F45
sI8
F97
sI9
F159
sI10
F54
sI11
F80
sI12
F63
sI13
F145
sI14
F79
sI15
F124
sI16
F189
sa(dp914
I1
F315
sI2
F124
sI3
F177
sI4
F230
sI5
F163
sI6
F106
sI7
F55
sI8
F158
sI9
F191
sI10
F126
sI11
F133
sI12
F125
sI13
F176
sI14
F126
sI15
F211
sI16
F254
sa(dp915
I1
F134
sI2
F55
sI3
F68
sI4
F91
sI5
F77
sI6
F47
sI7
F25
sI8
F56
sI9
F73
sI10
F50
sI11
F54
sI12
F45
sI13
F64
sI14
F53
sI15
F75
sI16
F109
sa(dp916
I1
F325
sI2
F174
sI3
F184
sI4
F291
sI5
F183
sI6
F99
sI7
F94
sI8
F160
sI9
F240
sI10
F109
sI11
F116
sI12
F163
sI13
F226
sI14
F154
sI15
F234
sI16
F343
sa(dp917
I1
F41
sI2
F45
sI3
F32
sI4
F55
sI5
F50
sI6
F26
sI7
F19
sI8
F39
sI9
F34
sI10
F20
sI11
F22
sI12
F29
sI13
F48
sI14
F43
sI15
F32
sI16
F51
sa(dp918
I1
F144
sI2
F68
sI3
F87
sI4
F111
sI5
F87
sI6
F51
sI7
F36
sI8
F71
sI9
F98
sI10
F51
sI11
F59
sI12
F62
sI13
F81
sI14
F75
sI15
F88
sI16
F146
sa(dp919
I1
F219
sI2
F83
sI3
F131
sI4
F104
sI5
F96
sI6
F51
sI7
F34
sI8
F73
sI9
F133
sI10
F50
sI11
F72
sI12
F93
sI13
F89
sI14
F70
sI15
F111
sI16
F136
sa(dp920
I1
F126
sI2
F87
sI3
F100
sI4
F157
sI5
F104
sI6
F73
sI7
F62
sI8
F111
sI9
F114
sI10
F78
sI11
F100
sI12
F102
sI13
F126
sI14
F112
sI15
F132
sI16
F194
sa(dp921
I1
F132
sI2
F50
sI3
F71
sI4
F97
sI5
F70
sI6
F49
sI7
F24
sI8
F79
sI9
F78
sI10
F37
sI11
F56
sI12
F73
sI13
F70
sI14
F86
sI15
F93
sI16
F138
sa(dp922
I1
F115
sI2
F62
sI3
F63
sI4
F82
sI5
F61
sI6
F47
sI7
F43
sI8
F74
sI9
F82
sI10
F40
sI11
F39
sI12
F61
sI13
F64
sI14
F76
sI15
F77
sI16
F87
sa(dp923
I1
F46
sI2
F18
sI3
F31
sI4
F34
sI5
F25
sI6
F17
sI7
F13
sI8
F27
sI9
F36
sI10
F23
sI11
F33
sI12
F20
sI13
F22
sI14
F24
sI15
F35
sI16
F46
sa(dp924
I1
F107
sI2
F72
sI3
F55
sI4
F70
sI5
F58
sI6
F32
sI7
F36
sI8
F42
sI9
F87
sI10
F27
sI11
F35
sI12
F37
sI13
F51
sI14
F37
sI15
F61
sI16
F71
sa(dp925
I1
F172
sI2
F79
sI3
F80
sI4
F142
sI5
F109
sI6
F64
sI7
F44
sI8
F90
sI9
F92
sI10
F71
sI11
F88
sI12
F97
sI13
F100
sI14
F93
sI15
F136
sI16
F138
sa(dp926
I1
F250
sI2
F110
sI3
F139
sI4
F149
sI5
F137
sI6
F96
sI7
F55
sI8
F106
sI9
F150
sI10
F82
sI11
F49
sI12
F69
sI13
F111
sI14
F106
sI15
F107
sI16
F121
sa(dp927
I1
F270
sI2
F146
sI3
F163
sI4
F193
sI5
F168
sI6
F119
sI7
F79
sI8
F145
sI9
F160
sI10
F99
sI11
F105
sI12
F129
sI13
F174
sI14
F147
sI15
F146
sI16
F173
sa(dp928
I1
F311
sI2
F103
sI3
F205
sI4
F148
sI5
F108
sI6
F80
sI7
F78
sI8
F98
sI9
F218
sI10
F75
sI11
F126
sI12
F127
sI13
F130
sI14
F106
sI15
F137
sI16
F171
sa(dp929
I1
F146
sI2
F90
sI3
F92
sI4
F148
sI5
F98
sI6
F55
sI7
F51
sI8
F91
sI9
F115
sI10
F56
sI11
F103
sI12
F90
sI13
F117
sI14
F94
sI15
F118
sI16
F158
sa(dp930
I1
F74
sI2
F34
sI3
F34
sI4
F44
sI5
F35
sI6
F23
sI7
F19
sI8
F22
sI9
F36
sI10
F21
sI11
F17
sI12
F24
sI13
F41
sI14
F21
sI15
F28
sI16
F24
sa(dp931
I1
F41
sI2
F28
sI3
F25
sI4
F62
sI5
F27
sI6
F18
sI7
F13
sI8
F31
sI9
F34
sI10
F16
sI11
F18
sI12
F22
sI13
F54
sI14
F27
sI15
F34
sI16
F56
sa(dp932
I1
F119
sI2
F70
sI3
F59
sI4
F79
sI5
F83
sI6
F49
sI7
F22
sI8
F85
sI9
F68
sI10
F58
sI11
F46
sI12
F59
sI13
F57
sI14
F62
sI15
F104
sI16
F109
sa(dp933
I1
F157
sI2
F62
sI3
F85
sI4
F106
sI5
F75
sI6
F49
sI7
F36
sI8
F73
sI9
F90
sI10
F47
sI11
F45
sI12
F64
sI13
F88
sI14
F75
sI15
F80
sI16
F127
sa(dp934
I1
F255
sI2
F103
sI3
F131
sI4
F150
sI5
F112
sI6
F78
sI7
F55
sI8
F98
sI9
F142
sI10
F61
sI11
F70
sI12
F103
sI13
F130
sI14
F101
sI15
F120
sI16
F179
sa(dp935
I1
F210
sI2
F77
sI3
F104
sI4
F151
sI5
F107
sI6
F50
sI7
F41
sI8
F61
sI9
F123
sI10
F42
sI11
F85
sI12
F65
sI13
F102
sI14
F90
sI15
F85
sI16
F143
sa(dp936
I1
F222
sI2
F102
sI3
F118
sI4
F138
sI5
F119
sI6
F62
sI7
F46
sI8
F96
sI9
F129
sI10
F76
sI11
F61
sI12
F63
sI13
F110
sI14
F83
sI15
F104
sI16
F117
sa(dp937
I1
F186
sI2
F95
sI3
F113
sI4
F140
sI5
F108
sI6
F75
sI7
F49
sI8
F91
sI9
F148
sI10
F53
sI11
F85
sI12
F87
sI13
F92
sI14
F100
sI15
F126
sI16
F177
sa(dp938
I1
F625
sI2
F250
sI3
F287
sI4
F368
sI5
F325
sI6
F208
sI7
F134
sI8
F240
sI9
F303
sI10
F152
sI11
F148
sI12
F187
sI13
F277
sI14
F297
sI15
F221
sI16
F342
sa(dp939
I1
F140
sI2
F60
sI3
F99
sI4
F134
sI5
F88
sI6
F37
sI7
F43
sI8
F69
sI9
F101
sI10
F56
sI11
F85
sI12
F79
sI13
F104
sI14
F84
sI15
F94
sI16
F139
sa(dp940
I1
F36
sI2
F23
sI3
F16
sI4
F33
sI5
F24
sI6
F14
sI7
F10
sI8
F37
sI9
F17
sI10
F13
sI11
F21
sI12
F17
sI13
F30
sI14
F35
sI15
F22
sI16
F49
sa(dp941
I1
F107
sI2
F47
sI3
F57
sI4
F80
sI5
F57
sI6
F42
sI7
F20
sI8
F48
sI9
F62
sI10
F31
sI11
F43
sI12
F54
sI13
F65
sI14
F47
sI15
F70
sI16
F98
sa(dp942
I1
F38
sI2
F21
sI3
F30
sI4
F49
sI5
F41
sI6
F17
sI7
F12
sI8
F27
sI9
F22
sI10
F30
sI11
F28
sI12
F28
sI13
F37
sI14
F29
sI15
F38
sI16
F68
sa(dp943
I1
F165
sI2
F102
sI3
F102
sI4
F147
sI5
F118
sI6
F71
sI7
F38
sI8
F82
sI9
F131
sI10
F65
sI11
F80
sI12
F76
sI13
F102
sI14
F71
sI15
F132
sI16
F155
sa(dp944
I1
F146
sI2
F72
sI3
F83
sI4
F82
sI5
F83
sI6
F56
sI7
F36
sI8
F59
sI9
F96
sI10
F45
sI11
F58
sI12
F53
sI13
F58
sI14
F61
sI15
F75
sI16
F87
sa(dp945
I1
F190
sI2
F102
sI3
F115
sI4
F122
sI5
F129
sI6
F91
sI7
F48
sI8
F79
sI9
F111
sI10
F63
sI11
F50
sI12
F57
sI13
F99
sI14
F91
sI15
F68
sI16
F101
sa(dp946
I1
F250
sI2
F251
sI3
F176
sI4
F239
sI5
F276
sI6
F151
sI7
F90
sI8
F248
sI9
F116
sI10
F124
sI11
F88
sI12
F166
sI13
F274
sI14
F239
sI15
F140
sI16
F246
sa(dp947
I1
F274
sI2
F92
sI3
F181
sI4
F167
sI5
F140
sI6
F57
sI7
F55
sI8
F77
sI9
F180
sI10
F100
sI11
F94
sI12
F77
sI13
F120
sI14
F80
sI15
F121
sI16
F108
sa(dp948
I1
F267
sI2
F96
sI3
F122
sI4
F155
sI5
F123
sI6
F55
sI7
F40
sI8
F98
sI9
F121
sI10
F68
sI11
F82
sI12
F95
sI13
F129
sI14
F97
sI15
F122
sI16
F164
sa(dp949
I1
F21
sI2
F20
sI3
F18
sI4
F17
sI5
F29
sI6
F24
sI7
F6
sI8
F26
sI9
F14
sI10
F7
sI11
F13
sI12
F22
sI13
F11
sI14
F34
sI15
F20
sI16
F41
sa(dp950
I1
F151
sI2
F88
sI3
F77
sI4
F116
sI5
F84
sI6
F59
sI7
F51
sI8
F75
sI9
F95
sI10
F51
sI11
F73
sI12
F63
sI13
F102
sI14
F71
sI15
F81
sI16
F110
sa(dp951
I1
F363
sI2
F170
sI3
F200
sI4
F256
sI5
F187
sI6
F94
sI7
F87
sI8
F149
sI9
F250
sI10
F108
sI11
F113
sI12
F103
sI13
F188
sI14
F145
sI15
F174
sI16
F218
sa(dp952
I1
F503
sI2
F201
sI3
F269
sI4
F328
sI5
F229
sI6
F127
sI7
F101
sI8
F196
sI9
F312
sI10
F124
sI11
F143
sI12
F153
sI13
F257
sI14
F201
sI15
F219
sI16
F313
sa(dp953
I1
F116
sI2
F45
sI3
F63
sI4
F82
sI5
F73
sI6
F27
sI7
F24
sI8
F45
sI9
F50
sI10
F38
sI11
F52
sI12
F64
sI13
F67
sI14
F59
sI15
F65
sI16
F88
sa(dp954
I1
F216
sI2
F123
sI3
F119
sI4
F181
sI5
F142
sI6
F86
sI7
F65
sI8
F134
sI9
F121
sI10
F99
sI11
F93
sI12
F106
sI13
F159
sI14
F119
sI15
F143
sI16
F218
sa(dp955
I1
F136
sI2
F91
sI3
F93
sI4
F139
sI5
F105
sI6
F64
sI7
F44
sI8
F122
sI9
F86
sI10
F70
sI11
F98
sI12
F100
sI13
F132
sI14
F110
sI15
F119
sI16
F210
sa(dp956
I1
F219
sI2
F118
sI3
F135
sI4
F198
sI5
F138
sI6
F71
sI7
F61
sI8
F103
sI9
F158
sI10
F73
sI11
F84
sI12
F102
sI13
F155
sI14
F111
sI15
F137
sI16
F190
sa(dp957
I1
F114
sI2
F61
sI3
F73
sI4
F125
sI5
F65
sI6
F43
sI7
F40
sI8
F60
sI9
F101
sI10
F50
sI11
F79
sI12
F90
sI13
F92
sI14
F54
sI15
F129
sI16
F104
sa(dp958
I1
F211
sI2
F130
sI3
F94
sI4
F141
sI5
F179
sI6
F72
sI7
F43
sI8
F85
sI9
F92
sI10
F56
sI11
F54
sI12
F58
sI13
F94
sI14
F121
sI15
F69
sI16
F138
sa(dp959
I1
F172
sI2
F79
sI3
F80
sI4
F142
sI5
F109
sI6
F64
sI7
F44
sI8
F90
sI9
F92
sI10
F71
sI11
F88
sI12
F97
sI13
F100
sI14
F93
sI15
F136
sI16
F138
sa(dp960
I1
F210
sI2
F108
sI3
F130
sI4
F131
sI5
F122
sI6
F42
sI7
F62
sI8
F82
sI9
F148
sI10
F69
sI11
F72
sI12
F92
sI13
F98
sI14
F89
sI15
F118
sI16
F132
sa(dp961
I1
F183
sI2
F63
sI3
F101
sI4
F117
sI5
F75
sI6
F58
sI7
F38
sI8
F59
sI9
F114
sI10
F44
sI11
F74
sI12
F73
sI13
F92
sI14
F65
sI15
F92
sI16
F120
sa(dp962
I1
F258
sI2
F107
sI3
F164
sI4
F175
sI5
F128
sI6
F71
sI7
F65
sI8
F105
sI9
F167
sI10
F77
sI11
F93
sI12
F149
sI13
F151
sI14
F114
sI15
F164
sI16
F183
sa(dp963
I1
F61
sI2
F37
sI3
F46
sI4
F66
sI5
F56
sI6
F35
sI7
F15
sI8
F40
sI9
F47
sI10
F35
sI11
F57
sI12
F42
sI13
F46
sI14
F39
sI15
F63
sI16
F63
sa(dp964
I1
F27
sI2
F21
sI3
F21
sI4
F38
sI5
F24
sI6
F15
sI7
F16
sI8
F13
sI9
F21
sI10
F19
sI11
F19
sI12
F32
sI13
F35
sI14
F13
sI15
F35
sI16
F42
sa(dp965
I1
F244
sI2
F141
sI3
F135
sI4
F228
sI5
F157
sI6
F92
sI7
F81
sI8
F151
sI9
F156
sI10
F96
sI11
F123
sI12
F156
sI13
F191
sI14
F152
sI15
F192
sI16
F242
sa(dp966
I1
F107
sI2
F67
sI3
F72
sI4
F130
sI5
F80
sI6
F56
sI7
F59
sI8
F103
sI9
F71
sI10
F91
sI11
F91
sI12
F103
sI13
F118
sI14
F84
sI15
F134
sI16
F194
sa(dp967
I1
F367
sI2
F168
sI3
F215
sI4
F327
sI5
F184
sI6
F118
sI7
F102
sI8
F172
sI9
F272
sI10
F134
sI11
F124
sI12
F141
sI13
F253
sI14
F156
sI15
F231
sI16
F349
sa(dp968
I1
F351
sI2
F170
sI3
F178
sI4
F300
sI5
F218
sI6
F115
sI7
F84
sI8
F147
sI9
F233
sI10
F108
sI11
F170
sI12
F164
sI13
F196
sI14
F171
sI15
F244
sI16
F349
sa(dp969
I1
F79
sI2
F36
sI3
F57
sI4
F80
sI5
F67
sI6
F34
sI7
F32
sI8
F52
sI9
F49
sI10
F54
sI11
F55
sI12
F54
sI13
F57
sI14
F61
sI15
F68
sI16
F132
sa(dp970
I1
F89
sI2
F40
sI3
F56
sI4
F87
sI5
F46
sI6
F17
sI7
F22
sI8
F34
sI9
F76
sI10
F30
sI11
F46
sI12
F46
sI13
F61
sI14
F32
sI15
F74
sI16
F75
sa(dp971
I1
F124
sI2
F61
sI3
F84
sI4
F137
sI5
F93
sI6
F47
sI7
F43
sI8
F77
sI9
F73
sI10
F70
sI11
F104
sI12
F88
sI13
F116
sI14
F82
sI15
F104
sI16
F177
sa(dp972
I1
F106
sI2
F61
sI3
F62
sI4
F98
sI5
F74
sI6
F53
sI7
F30
sI8
F89
sI9
F73
sI10
F50
sI11
F62
sI12
F72
sI13
F74
sI14
F82
sI15
F103
sI16
F173
sa(dp973
I1
F177
sI2
F89
sI3
F95
sI4
F123
sI5
F109
sI6
F70
sI7
F41
sI8
F55
sI9
F103
sI10
F40
sI11
F57
sI12
F66
sI13
F95
sI14
F76
sI15
F73
sI16
F81
sa(dp974
I1
F435
sI2
F158
sI3
F217
sI4
F303
sI5
F199
sI6
F78
sI7
F75
sI8
F157
sI9
F266
sI10
F102
sI11
F119
sI12
F142
sI13
F213
sI14
F171
sI15
F218
sI16
F316
sa(dp975
I1
F67
sI2
F36
sI3
F41
sI4
F65
sI5
F47
sI6
F11
sI7
F15
sI8
F24
sI9
F57
sI10
F16
sI11
F18
sI12
F25
sI13
F37
sI14
F34
sI15
F43
sI16
F44
sa(dp976
I1
F68
sI2
F19
sI3
F36
sI4
F51
sI5
F34
sI6
F26
sI7
F14
sI8
F20
sI9
F43
sI10
F15
sI11
F21
sI12
F33
sI13
F29
sI14
F34
sI15
F41
sI16
F52
sa(dp977
I1
F113
sI2
F77
sI3
F72
sI4
F131
sI5
F119
sI6
F63
sI7
F27
sI8
F59
sI9
F70
sI10
F54
sI11
F83
sI12
F66
sI13
F91
sI14
F74
sI15
F91
sI16
F87
sa(dp978
I1
F130
sI2
F47
sI3
F64
sI4
F102
sI5
F68
sI6
F37
sI7
F32
sI8
F54
sI9
F71
sI10
F41
sI11
F58
sI12
F59
sI13
F73
sI14
F66
sI15
F76
sI16
F86
sa(dp979
I1
F110
sI2
F55
sI3
F77
sI4
F90
sI5
F62
sI6
F40
sI7
F25
sI8
F65
sI9
F88
sI10
F50
sI11
F78
sI12
F59
sI13
F72
sI14
F47
sI15
F95
sI16
F98
sa(dp980
I1
F170
sI2
F134
sI3
F85
sI4
F173
sI5
F167
sI6
F73
sI7
F51
sI8
F139
sI9
F93
sI10
F79
sI11
F66
sI12
F91
sI13
F132
sI14
F144
sI15
F127
sI16
F196
sa(dp981
I1
F415
sI2
F152
sI3
F204
sI4
F249
sI5
F179
sI6
F73
sI7
F93
sI8
F131
sI9
F227
sI10
F103
sI11
F103
sI12
F112
sI13
F199
sI14
F148
sI15
F145
sI16
F261
sa(dp982
I1
F18
sI2
F12
sI3
F11
sI4
F6
sI5
F14
sI6
F10
sI7
F8
sI8
F9
sI9
F9
sI10
F3
sI11
F8
sI12
F15
sI13
F6
sI14
F16
sI15
F8
sI16
F14
sa(dp983
I1
F103
sI2
F41
sI3
F71
sI4
F46
sI5
F47
sI6
F15
sI7
F26
sI8
F28
sI9
F68
sI10
F30
sI11
F25
sI12
F32
sI13
F43
sI14
F30
sI15
F33
sI16
F39
sa(dp984
I1
F160
sI2
F94
sI3
F86
sI4
F137
sI5
F93
sI6
F63
sI7
F42
sI8
F68
sI9
F116
sI10
F41
sI11
F70
sI12
F71
sI13
F108
sI14
F68
sI15
F100
sI16
F122
sa(dp985
I1
F94
sI2
F40
sI3
F62
sI4
F77
sI5
F58
sI6
F25
sI7
F14
sI8
F37
sI9
F63
sI10
F22
sI11
F39
sI12
F38
sI13
F57
sI14
F47
sI15
F47
sI16
F72
sa(dp986
I1
F8
sI2
F6
sI3
F12
sI4
F12
sI5
F13
sI6
F16
sI7
F5
sI8
F20
sI9
F9
sI10
F9
sI11
F15
sI12
F16
sI13
F8
sI14
F23
sI15
F17
sI16
F46
sa(dp987
I1
F93
sI2
F67
sI3
F64
sI4
F70
sI5
F79
sI6
F42
sI7
F34
sI8
F44
sI9
F65
sI10
F35
sI11
F48
sI12
F77
sI13
F57
sI14
F55
sI15
F79
sI16
F102
sa(dp988
I1
F137
sI2
F71
sI3
F108
sI4
F98
sI5
F92
sI6
F61
sI7
F46
sI8
F58
sI9
F102
sI10
F69
sI11
F58
sI12
F65
sI13
F82
sI14
F56
sI15
F83
sI16
F88
sa(dp989
I1
F88
sI2
F54
sI3
F51
sI4
F80
sI5
F60
sI6
F32
sI7
F27
sI8
F45
sI9
F60
sI10
F35
sI11
F50
sI12
F61
sI13
F65
sI14
F43
sI15
F78
sI16
F93
sa(dp990
I1
F304
sI2
F178
sI3
F167
sI4
F218
sI5
F261
sI6
F135
sI7
F64
sI8
F142
sI9
F146
sI10
F113
sI11
F91
sI12
F98
sI13
F156
sI14
F176
sI15
F126
sI16
F200
sa(dp991
I1
F386
sI2
F180
sI3
F200
sI4
F332
sI5
F210
sI6
F106
sI7
F78
sI8
F238
sI9
F239
sI10
F117
sI11
F165
sI12
F169
sI13
F263
sI14
F229
sI15
F247
sI16
F438
sa(dp992
I1
F167
sI2
F58
sI3
F100
sI4
F88
sI5
F86
sI6
F56
sI7
F37
sI8
F56
sI9
F89
sI10
F53
sI11
F50
sI12
F47
sI13
F71
sI14
F68
sI15
F52
sI16
F69
sa(dp993
I1
F113
sI2
F67
sI3
F70
sI4
F85
sI5
F67
sI6
F58
sI7
F31
sI8
F56
sI9
F81
sI10
F32
sI11
F40
sI12
F40
sI13
F73
sI14
F55
sI15
F53
sI16
F46
sa(dp994
I1
F265
sI2
F106
sI3
F141
sI4
F146
sI5
F111
sI6
F63
sI7
F52
sI8
F86
sI9
F160
sI10
F73
sI11
F72
sI12
F46
sI13
F121
sI14
F70
sI15
F87
sI16
F123
sa(dp995
I1
F177
sI2
F82
sI3
F119
sI4
F158
sI5
F103
sI6
F67
sI7
F47
sI8
F70
sI9
F156
sI10
F54
sI11
F89
sI12
F105
sI13
F100
sI14
F84
sI15
F149
sI16
F142
sa(dp996
I1
F183
sI2
F79
sI3
F84
sI4
F128
sI5
F93
sI6
F63
sI7
F46
sI8
F67
sI9
F99
sI10
F44
sI11
F61
sI12
F71
sI13
F98
sI14
F83
sI15
F85
sI16
F149
sa(dp997
I1
F332
sI2
F169
sI3
F197
sI4
F265
sI5
F196
sI6
F105
sI7
F79
sI8
F135
sI9
F209
sI10
F107
sI11
F111
sI12
F155
sI13
F225
sI14
F134
sI15
F196
sI16
F252
sa(dp998
I1
F77
sI2
F45
sI3
F42
sI4
F97
sI5
F82
sI6
F39
sI7
F38
sI8
F70
sI9
F32
sI10
F55
sI11
F56
sI12
F89
sI13
F70
sI14
F90
sI15
F96
sI16
F154
sa(dp999
I1
F186
sI2
F68
sI3
F72
sI4
F120
sI5
F85
sI6
F63
sI7
F26
sI8
F66
sI9
F79
sI10
F40
sI11
F22
sI12
F32
sI13
F96
sI14
F69
sI15
F53
sI16
F55
sa(dp1000
I1
F214
sI2
F57
sI3
F145
sI4
F112
sI5
F75
sI6
F42
sI7
F27
sI8
F101
sI9
F148
sI10
F66
sI11
F57
sI12
F63
sI13
F91
sI14
F80
sI15
F105
sI16
F127
sa(dp1001
I1
F147
sI2
F53
sI3
F83
sI4
F145
sI5
F74
sI6
F42
sI7
F32
sI8
F73
sI9
F106
sI10
F46
sI11
F53
sI12
F59
sI13
F100
sI14
F80
sI15
F97
sI16
F122
sa(dp1002
I1
F226
sI2
F125
sI3
F100
sI4
F218
sI5
F144
sI6
F109
sI7
F48
sI8
F117
sI9
F118
sI10
F58
sI11
F60
sI12
F83
sI13
F181
sI14
F126
sI15
F111
sI16
F182
sa(dp1003
I1
F89
sI2
F27
sI3
F66
sI4
F35
sI5
F39
sI6
F23
sI7
F9
sI8
F30
sI9
F65
sI10
F25
sI11
F26
sI12
F27
sI13
F24
sI14
F26
sI15
F42
sI16
F42
sa(dp1004
I1
F277
sI2
F112
sI3
F145
sI4
F210
sI5
F144
sI6
F83
sI7
F57
sI8
F109
sI9
F177
sI10
F68
sI11
F74
sI12
F77
sI13
F145
sI14
F130
sI15
F121
sI16
F209
sa(dp1005
I1
F168
sI2
F60
sI3
F73
sI4
F93
sI5
F73
sI6
F24
sI7
F20
sI8
F47
sI9
F88
sI10
F35
sI11
F37
sI12
F37
sI13
F64
sI14
F45
sI15
F68
sI16
F100
sa(dp1006
I1
F42
sI2
F35
sI3
F20
sI4
F43
sI5
F33
sI6
F17
sI7
F17
sI8
F37
sI9
F27
sI10
F16
sI11
F15
sI12
F30
sI13
F38
sI14
F36
sI15
F36
sI16
F46
sa(dp1007
I1
F189
sI2
F102
sI3
F107
sI4
F152
sI5
F110
sI6
F67
sI7
F41
sI8
F106
sI9
F133
sI10
F65
sI11
F64
sI12
F79
sI13
F118
sI14
F90
sI15
F129
sI16
F170
sa(dp1008
I1
F186
sI2
F102
sI3
F132
sI4
F165
sI5
F122
sI6
F76
sI7
F61
sI8
F92
sI9
F140
sI10
F82
sI11
F112
sI12
F98
sI13
F136
sI14
F91
sI15
F128
sI16
F159
sa(dp1009
I1
F228
sI2
F131
sI3
F133
sI4
F216
sI5
F179
sI6
F89
sI7
F51
sI8
F140
sI9
F136
sI10
F83
sI11
F97
sI12
F111
sI13
F165
sI14
F156
sI15
F146
sI16
F240
sa(dp1010
I1
F509
sI2
F305
sI3
F300
sI4
F417
sI5
F377
sI6
F245
sI7
F154
sI8
F264
sI9
F324
sI10
F161
sI11
F222
sI12
F342
sI13
F320
sI14
F329
sI15
F374
sI16
F474
sa(dp1011
I1
F139
sI2
F89
sI3
F78
sI4
F150
sI5
F114
sI6
F58
sI7
F51
sI8
F103
sI9
F89
sI10
F71
sI11
F67
sI12
F76
sI13
F114
sI14
F108
sI15
F107
sI16
F172
sa(dp1012
I1
F21
sI2
F12
sI3
F16
sI4
F26
sI5
F12
sI6
F9
sI7
F8
sI8
F23
sI9
F17
sI10
F12
sI11
F15
sI12
F24
sI13
F24
sI14
F19
sI15
F30
sI16
F52
sa(dp1013
I1
F263
sI2
F159
sI3
F139
sI4
F218
sI5
F169
sI6
F125
sI7
F82
sI8
F168
sI9
F173
sI10
F103
sI11
F110
sI12
F143
sI13
F173
sI14
F157
sI15
F198
sI16
F242
sa(dp1014
I1
F35
sI2
F18
sI3
F36
sI4
F31
sI5
F31
sI6
F23
sI7
F9
sI8
F20
sI9
F31
sI10
F19
sI11
F10
sI12
F17
sI13
F22
sI14
F23
sI15
F23
sI16
F28
sa(dp1015
I1
F191
sI2
F91
sI3
F90
sI4
F135
sI5
F113
sI6
F69
sI7
F42
sI8
F96
sI9
F95
sI10
F59
sI11
F56
sI12
F57
sI13
F108
sI14
F101
sI15
F79
sI16
F157
sa(dp1016
I1
F52
sI2
F31
sI3
F44
sI4
F56
sI5
F36
sI6
F19
sI7
F15
sI8
F45
sI9
F45
sI10
F24
sI11
F24
sI12
F40
sI13
F49
sI14
F41
sI15
F51
sI16
F76
sa(dp1017
I1
F68
sI2
F21
sI3
F15
sI4
F34
sI5
F28
sI6
F15
sI7
F9
sI8
F15
sI9
F17
sI10
F14
sI11
F10
sI12
F11
sI13
F24
sI14
F17
sI15
F19
sI16
F27
sa(dp1018
I1
F104
sI2
F55
sI3
F63
sI4
F85
sI5
F70
sI6
F39
sI7
F33
sI8
F54
sI9
F71
sI10
F39
sI11
F62
sI12
F82
sI13
F62
sI14
F63
sI15
F96
sI16
F86
sa(dp1019
I1
F66
sI2
F15
sI3
F37
sI4
F40
sI5
F22
sI6
F13
sI7
F12
sI8
F15
sI9
F45
sI10
F15
sI11
F27
sI12
F27
sI13
F25
sI14
F19
sI15
F38
sI16
F46
sa(dp1020
I1
F86
sI2
F40
sI3
F55
sI4
F79
sI5
F53
sI6
F22
sI7
F21
sI8
F37
sI9
F70
sI10
F33
sI11
F44
sI12
F40
sI13
F51
sI14
F38
sI15
F67
sI16
F77
sa(dp1021
I1
F72
sI2
F37
sI3
F48
sI4
F52
sI5
F47
sI6
F21
sI7
F14
sI8
F39
sI9
F48
sI10
F27
sI11
F32
sI12
F27
sI13
F42
sI14
F36
sI15
F40
sI16
F45
sa(dp1022
I1
F215
sI2
F111
sI3
F122
sI4
F157
sI5
F160
sI6
F110
sI7
F43
sI8
F115
sI9
F109
sI10
F71
sI11
F80
sI12
F88
sI13
F120
sI14
F136
sI15
F104
sI16
F176
sa(dp1023
I1
F348
sI2
F171
sI3
F186
sI4
F221
sI5
F221
sI6
F112
sI7
F73
sI8
F142
sI9
F168
sI10
F99
sI11
F88
sI12
F103
sI13
F189
sI14
F166
sI15
F111
sI16
F157
sa(dp1024
I1
F186
sI2
F93
sI3
F114
sI4
F141
sI5
F109
sI6
F76
sI7
F48
sI8
F90
sI9
F147
sI10
F53
sI11
F86
sI12
F88
sI13
F92
sI14
F101
sI15
F126
sI16
F175
sa(dp1025
I1
F291
sI2
F143
sI3
F157
sI4
F251
sI5
F178
sI6
F79
sI7
F79
sI8
F119
sI9
F191
sI10
F113
sI11
F95
sI12
F103
sI13
F182
sI14
F120
sI15
F171
sI16
F209
sa(dp1026
I1
F252
sI2
F113
sI3
F159
sI4
F218
sI5
F130
sI6
F76
sI7
F65
sI8
F115
sI9
F183
sI10
F91
sI11
F127
sI12
F117
sI13
F177
sI14
F106
sI15
F167
sI16
F208
sa(dp1027
I1
F116
sI2
F47
sI3
F73
sI4
F81
sI5
F58
sI6
F45
sI7
F33
sI8
F69
sI9
F89
sI10
F46
sI11
F43
sI12
F47
sI13
F53
sI14
F67
sI15
F77
sI16
F64
sa(dp1028
I1
F150
sI2
F43
sI3
F68
sI4
F75
sI5
F44
sI6
F31
sI7
F23
sI8
F44
sI9
F79
sI10
F25
sI11
F17
sI12
F30
sI13
F63
sI14
F43
sI15
F43
sI16
F82
sa(dp1029
I1
F103
sI2
F54
sI3
F64
sI4
F77
sI5
F56
sI6
F26
sI7
F19
sI8
F40
sI9
F86
sI10
F27
sI11
F33
sI12
F30
sI13
F53
sI14
F34
sI15
F60
sI16
F66
sa(dp1030
I1
F100
sI2
F32
sI3
F56
sI4
F66
sI5
F46
sI6
F20
sI7
F17
sI8
F33
sI9
F61
sI10
F26
sI11
F41
sI12
F44
sI13
F46
sI14
F38
sI15
F59
sI16
F57
sa(dp1031
I1
F84
sI2
F38
sI3
F69
sI4
F65
sI5
F60
sI6
F25
sI7
F25
sI8
F47
sI9
F63
sI10
F41
sI11
F39
sI12
F54
sI13
F49
sI14
F53
sI15
F64
sI16
F73
sa(dp1032
I1
F224
sI2
F96
sI3
F117
sI4
F143
sI5
F125
sI6
F64
sI7
F55
sI8
F90
sI9
F118
sI10
F75
sI11
F60
sI12
F59
sI13
F113
sI14
F99
sI15
F80
sI16
F110
sa(dp1033
I1
F141
sI2
F108
sI3
F62
sI4
F100
sI5
F103
sI6
F66
sI7
F51
sI8
F76
sI9
F95
sI10
F41
sI11
F58
sI12
F91
sI13
F72
sI14
F81
sI15
F114
sI16
F121
sa(dp1034
I1
F90
sI2
F45
sI3
F60
sI4
F101
sI5
F57
sI6
F32
sI7
F34
sI8
F37
sI9
F82
sI10
F39
sI11
F54
sI12
F55
sI13
F67
sI14
F44
sI15
F82
sI16
F76
sa(dp1035
I1
F71
sI2
F31
sI3
F39
sI4
F58
sI5
F44
sI6
F22
sI7
F15
sI8
F19
sI9
F44
sI10
F20
sI11
F28
sI12
F30
sI13
F40
sI14
F27
sI15
F40
sI16
F61
sa(dp1036
I1
F378
sI2
F226
sI3
F209
sI4
F334
sI5
F259
sI6
F135
sI7
F107
sI8
F290
sI9
F229
sI10
F156
sI11
F183
sI12
F235
sI13
F281
sI14
F274
sI15
F304
sI16
F516
sa(dp1037
I1
F141
sI2
F84
sI3
F91
sI4
F143
sI5
F99
sI6
F77
sI7
F50
sI8
F116
sI9
F98
sI10
F78
sI11
F99
sI12
F112
sI13
F120
sI14
F103
sI15
F148
sI16
F222
sa(dp1038
I1
F136
sI2
F89
sI3
F98
sI4
F161
sI5
F108
sI6
F76
sI7
F50
sI8
F115
sI9
F104
sI10
F76
sI11
F118
sI12
F126
sI13
F136
sI14
F108
sI15
F158
sI16
F217
sa(dp1039
I1
F232
sI2
F101
sI3
F127
sI4
F141
sI5
F112
sI6
F76
sI7
F63
sI8
F87
sI9
F143
sI10
F65
sI11
F90
sI12
F96
sI13
F114
sI14
F96
sI15
F114
sI16
F145
sa(dp1040
I1
F158
sI2
F89
sI3
F100
sI4
F176
sI5
F119
sI6
F83
sI7
F52
sI8
F96
sI9
F118
sI10
F66
sI11
F94
sI12
F99
sI13
F128
sI14
F112
sI15
F131
sI16
F210
sa(dp1041
I1
F144
sI2
F68
sI3
F93
sI4
F136
sI5
F73
sI6
F44
sI7
F34
sI8
F85
sI9
F93
sI10
F50
sI11
F84
sI12
F123
sI13
F130
sI14
F74
sI15
F140
sI16
F159
sa(dp1042
I1
F154
sI2
F53
sI3
F91
sI4
F94
sI5
F68
sI6
F35
sI7
F28
sI8
F51
sI9
F100
sI10
F47
sI11
F63
sI12
F59
sI13
F70
sI14
F47
sI15
F87
sI16
F97
sa(dp1043
I1
F127
sI2
F74
sI3
F90
sI4
F116
sI5
F96
sI6
F59
sI7
F36
sI8
F56
sI9
F100
sI10
F46
sI11
F69
sI12
F67
sI13
F84
sI14
F68
sI15
F87
sI16
F119
sa(dp1044
I1
F307
sI2
F86
sI3
F175
sI4
F149
sI5
F90
sI6
F60
sI7
F52
sI8
F72
sI9
F206
sI10
F52
sI11
F85
sI12
F88
sI13
F114
sI14
F76
sI15
F119
sI16
F124
sa(dp1045
I1
F142
sI2
F57
sI3
F74
sI4
F89
sI5
F71
sI6
F45
sI7
F37
sI8
F47
sI9
F86
sI10
F37
sI11
F40
sI12
F44
sI13
F62
sI14
F61
sI15
F57
sI16
F65
sa(dp1046
I1
F234
sI2
F86
sI3
F119
sI4
F123
sI5
F125
sI6
F75
sI7
F45
sI8
F91
sI9
F103
sI10
F72
sI11
F48
sI12
F70
sI13
F99
sI14
F103
sI15
F82
sI16
F117
sa(dp1047
I1
F28
sI2
F28
sI3
F17
sI4
F36
sI5
F24
sI6
F13
sI7
F13
sI8
F29
sI9
F26
sI10
F17
sI11
F14
sI12
F12
sI13
F31
sI14
F21
sI15
F25
sI16
F31
sa(dp1048
I1
F94
sI2
F40
sI3
F62
sI4
F77
sI5
F58
sI6
F25
sI7
F14
sI8
F37
sI9
F63
sI10
F22
sI11
F39
sI12
F38
sI13
F57
sI14
F47
sI15
F47
sI16
F72
sa(dp1049
I1
F352
sI2
F167
sI3
F239
sI4
F277
sI5
F219
sI6
F116
sI7
F113
sI8
F210
sI9
F251
sI10
F166
sI11
F178
sI12
F236
sI13
F213
sI14
F209
sI15
F301
sI16
F344
sa(dp1050
I1
F77
sI2
F46
sI3
F63
sI4
F61
sI5
F67
sI6
F35
sI7
F21
sI8
F44
sI9
F62
sI10
F40
sI11
F41
sI12
F39
sI13
F41
sI14
F46
sI15
F57
sI16
F50
sa(dp1051
I1
F185
sI2
F119
sI3
F110
sI4
F119
sI5
F119
sI6
F74
sI7
F58
sI8
F97
sI9
F157
sI10
F59
sI11
F91
sI12
F93
sI13
F71
sI14
F96
sI15
F142
sI16
F150
sa(dp1052
I1
F8
sI2
F8
sI3
F8
sI4
F41
sI5
F25
sI6
F19
sI7
F9
sI8
F48
sI9
F5
sI10
F10
sI11
F4
sI12
F19
sI13
F26
sI14
F64
sI15
F18
sI16
F55
sa(dp1053
I1
F166
sI2
F79
sI3
F93
sI4
F106
sI5
F96
sI6
F49
sI7
F37
sI8
F62
sI9
F100
sI10
F52
sI11
F38
sI12
F63
sI13
F82
sI14
F64
sI15
F85
sI16
F99
sa(dp1054
I1
F31
sI2
F22
sI3
F16
sI4
F30
sI5
F20
sI6
F7
sI7
F10
sI8
F14
sI9
F28
sI10
F5
sI11
F16
sI12
F13
sI13
F20
sI14
F17
sI15
F20
sI16
F25
sa(dp1055
I1
F60
sI2
F37
sI3
F34
sI4
F60
sI5
F36
sI6
F24
sI7
F21
sI8
F32
sI9
F42
sI10
F27
sI11
F38
sI12
F44
sI13
F53
sI14
F25
sI15
F58
sI16
F45
sa(dp1056
I1
F141
sI2
F82
sI3
F102
sI4
F172
sI5
F100
sI6
F59
sI7
F57
sI8
F102
sI9
F110
sI10
F67
sI11
F81
sI12
F125
sI13
F145
sI14
F110
sI15
F144
sI16
F229
sa(dp1057
I1
F262
sI2
F119
sI3
F126
sI4
F181
sI5
F127
sI6
F83
sI7
F58
sI8
F85
sI9
F161
sI10
F51
sI11
F76
sI12
F70
sI13
F137
sI14
F100
sI15
F99
sI16
F167
sa(dp1058
I1
F311
sI2
F143
sI3
F167
sI4
F228
sI5
F150
sI6
F83
sI7
F66
sI8
F126
sI9
F198
sI10
F69
sI11
F89
sI12
F96
sI13
F190
sI14
F130
sI15
F130
sI16
F187
sa(dp1059
I1
F385
sI2
F149
sI3
F244
sI4
F275
sI5
F191
sI6
F118
sI7
F86
sI8
F137
sI9
F268
sI10
F111
sI11
F144
sI12
F185
sI13
F209
sI14
F154
sI15
F234
sI16
F279
sa(dp1060
I1
F362
sI2
F151
sI3
F175
sI4
F236
sI5
F189
sI6
F88
sI7
F70
sI8
F124
sI9
F182
sI10
F83
sI11
F97
sI12
F112
sI13
F191
sI14
F149
sI15
F132
sI16
F211
sa(dp1061
I1
F452
sI2
F202
sI3
F215
sI4
F303
sI5
F242
sI6
F126
sI7
F99
sI8
F169
sI9
F257
sI10
F125
sI11
F151
sI12
F153
sI13
F220
sI14
F183
sI15
F222
sI16
F280
sa(dp1062
I1
F321
sI2
F146
sI3
F130
sI4
F260
sI5
F204
sI6
F140
sI7
F69
sI8
F149
sI9
F146
sI10
F105
sI11
F96
sI12
F113
sI13
F185
sI14
F171
sI15
F165
sI16
F222
sa(dp1063
I1
F85
sI2
F49
sI3
F51
sI4
F63
sI5
F62
sI6
F39
sI7
F28
sI8
F51
sI9
F65
sI10
F30
sI11
F37
sI12
F23
sI13
F36
sI14
F62
sI15
F39
sI16
F34
sa(dp1064
I1
F74
sI2
F22
sI3
F43
sI4
F26
sI5
F24
sI6
F9
sI7
F18
sI8
F22
sI9
F45
sI10
F22
sI11
F25
sI12
F29
sI13
F22
sI14
F20
sI15
F35
sI16
F35
sa(dp1065
I1
F197
sI2
F104
sI3
F108
sI4
F152
sI5
F129
sI6
F55
sI7
F38
sI8
F86
sI9
F106
sI10
F60
sI11
F61
sI12
F78
sI13
F129
sI14
F89
sI15
F98
sI16
F150
sa(dp1066
I1
F227
sI2
F93
sI3
F106
sI4
F167
sI5
F117
sI6
F77
sI7
F47
sI8
F86
sI9
F132
sI10
F68
sI11
F59
sI12
F60
sI13
F117
sI14
F89
sI15
F107
sI16
F120
sa(dp1067
I1
F213
sI2
F54
sI3
F105
sI4
F92
sI5
F63
sI6
F35
sI7
F24
sI8
F45
sI9
F118
sI10
F42
sI11
F44
sI12
F44
sI13
F69
sI14
F36
sI15
F75
sI16
F99
sa(dp1068
I1
F229
sI2
F77
sI3
F98
sI4
F144
sI5
F91
sI6
F36
sI7
F40
sI8
F92
sI9
F111
sI10
F58
sI11
F43
sI12
F60
sI13
F117
sI14
F88
sI15
F91
sI16
F158
sa(dp1069
I1
F268
sI2
F120
sI3
F165
sI4
F205
sI5
F143
sI6
F83
sI7
F63
sI8
F111
sI9
F188
sI10
F66
sI11
F79
sI12
F113
sI13
F158
sI14
F131
sI15
F140
sI16
F209
sa(dp1070
I1
F252
sI2
F113
sI3
F130
sI4
F198
sI5
F142
sI6
F70
sI7
F46
sI8
F85
sI9
F152
sI10
F57
sI11
F87
sI12
F107
sI13
F147
sI14
F103
sI15
F140
sI16
F194
sa(dp1071
I1
F230
sI2
F93
sI3
F91
sI4
F169
sI5
F111
sI6
F56
sI7
F40
sI8
F82
sI9
F109
sI10
F61
sI11
F75
sI12
F80
sI13
F132
sI14
F79
sI15
F120
sI16
F141
sa(dp1072
I1
F115
sI2
F33
sI3
F81
sI4
F57
sI5
F41
sI6
F33
sI7
F24
sI8
F46
sI9
F79
sI10
F30
sI11
F28
sI12
F51
sI13
F50
sI14
F48
sI15
F56
sI16
F71
sa(dp1073
I1
F91
sI2
F38
sI3
F45
sI4
F81
sI5
F40
sI6
F18
sI7
F24
sI8
F32
sI9
F60
sI10
F28
sI11
F28
sI12
F23
sI13
F63
sI14
F30
sI15
F43
sI16
F42
sa(dp1074
I1
F38
sI2
F14
sI3
F17
sI4
F32
sI5
F19
sI6
F16
sI7
F6
sI8
F30
sI9
F19
sI10
F11
sI11
F9
sI12
F13
sI13
F25
sI14
F30
sI15
F20
sI16
F54
sa(dp1075
I1
F197
sI2
F84
sI3
F105
sI4
F141
sI5
F111
sI6
F61
sI7
F46
sI8
F98
sI9
F114
sI10
F75
sI11
F80
sI12
F94
sI13
F105
sI14
F96
sI15
F132
sI16
F148
sa(dp1076
I1
F15
sI2
F14
sI3
F14
sI4
F35
sI5
F15
sI6
F16
sI7
F8
sI8
F18
sI9
F17
sI10
F7
sI11
F7
sI12
F14
sI13
F31
sI14
F20
sI15
F16
sI16
F53
sa(dp1077
I1
F518
sI2
F161
sI3
F252
sI4
F238
sI5
F180
sI6
F91
sI7
F77
sI8
F163
sI9
F286
sI10
F108
sI11
F111
sI12
F117
sI13
F185
sI14
F151
sI15
F182
sI16
F245
sa(dp1078
I1
F115
sI2
F74
sI3
F69
sI4
F111
sI5
F84
sI6
F48
sI7
F36
sI8
F88
sI9
F65
sI10
F50
sI11
F75
sI12
F83
sI13
F105
sI14
F84
sI15
F93
sI16
F173
sa(dp1079
I1
F152
sI2
F47
sI3
F103
sI4
F75
sI5
F58
sI6
F36
sI7
F27
sI8
F54
sI9
F93
sI10
F38
sI11
F57
sI12
F59
sI13
F73
sI14
F54
sI15
F61
sI16
F110
sa(dp1080
I1
F197
sI2
F104
sI3
F108
sI4
F152
sI5
F129
sI6
F55
sI7
F38
sI8
F86
sI9
F106
sI10
F60
sI11
F61
sI12
F78
sI13
F129
sI14
F89
sI15
F98
sI16
F150
sa(dp1081
I1
F197
sI2
F104
sI3
F108
sI4
F152
sI5
F129
sI6
F55
sI7
F38
sI8
F86
sI9
F106
sI10
F60
sI11
F61
sI12
F78
sI13
F129
sI14
F89
sI15
F98
sI16
F150
sa(dp1082
I1
F375
sI2
F161
sI3
F226
sI4
F289
sI5
F183
sI6
F61
sI7
F91
sI8
F153
sI9
F267
sI10
F104
sI11
F115
sI12
F146
sI13
F226
sI14
F162
sI15
F200
sI16
F297
sa.